
softfloat.o:     file format elf64-x86-64
softfloat.o


Disassembly of section .text:

0000000000000000 <_ZN9SoftfloatC1Ev>:
_ZN9SoftfloatC1Ev():
       0:	f3 0f 1e fa          	endbr64 
       4:	55                   	push   %rbp
       5:	48 89 e5             	mov    %rsp,%rbp
       8:	48 83 ec 10          	sub    $0x10,%rsp
       c:	48 89 7d f8          	mov    %rdi,-0x8(%rbp)
      10:	48 8b 45 f8          	mov    -0x8(%rbp),%rax
      14:	be 00 00 00 00       	mov    $0x0,%esi
      19:	48 89 c7             	mov    %rax,%rdi
      1c:	e8 00 00 00 00       	call   21 <_ZN9SoftfloatC1Ev+0x21>
      21:	90                   	nop
      22:	c9                   	leave  
      23:	c3                   	ret    

0000000000000024 <_ZN9SoftfloatD1Ev>:
_ZN9SoftfloatD1Ev():
      24:	f3 0f 1e fa          	endbr64 
      28:	55                   	push   %rbp
      29:	48 89 e5             	mov    %rsp,%rbp
      2c:	48 89 7d f8          	mov    %rdi,-0x8(%rbp)
      30:	90                   	nop
      31:	5d                   	pop    %rbp
      32:	c3                   	ret    
      33:	90                   	nop

0000000000000034 <_ZN9Softfloat9get_vziouEv>:
_ZN9Softfloat9get_vziouEv():
      34:	f3 0f 1e fa          	endbr64 
      38:	55                   	push   %rbp
      39:	48 89 e5             	mov    %rsp,%rbp
      3c:	48 89 7d f8          	mov    %rdi,-0x8(%rbp)
      40:	48 8b 45 f8          	mov    -0x8(%rbp),%rax
      44:	0f b6 00             	movzbl (%rax),%eax
      47:	5d                   	pop    %rbp
      48:	c3                   	ret    
      49:	90                   	nop

000000000000004a <_ZN9Softfloat9switch_rmEh>:
_ZN9Softfloat9switch_rmEh():
      4a:	f3 0f 1e fa          	endbr64 
      4e:	55                   	push   %rbp
      4f:	48 89 e5             	mov    %rsp,%rbp
      52:	48 83 ec 10          	sub    $0x10,%rsp
      56:	48 89 7d f8          	mov    %rdi,-0x8(%rbp)
      5a:	89 f0                	mov    %esi,%eax
      5c:	88 45 f4             	mov    %al,-0xc(%rbp)
      5f:	0f b6 45 f4          	movzbl -0xc(%rbp),%eax
      63:	89 c7                	mov    %eax,%edi
      65:	e8 00 00 00 00       	call   6a <_ZN9Softfloat9switch_rmEh+0x20>
      6a:	b8 00 00 00 00       	mov    $0x0,%eax
      6f:	c9                   	leave  
      70:	c3                   	ret    
      71:	90                   	nop

0000000000000072 <_ZN9Softfloat10get_resultEhhhmmm>:
_ZN9Softfloat10get_resultEhhhmmm():
      72:	f3 0f 1e fa          	endbr64 
      76:	55                   	push   %rbp
      77:	48 89 e5             	mov    %rsp,%rbp
      7a:	48 83 ec 30          	sub    $0x30,%rsp
      7e:	48 89 7d f8          	mov    %rdi,-0x8(%rbp)
      82:	89 c8                	mov    %ecx,%eax
      84:	4c 89 45 e0          	mov    %r8,-0x20(%rbp)
      88:	4c 89 4d d8          	mov    %r9,-0x28(%rbp)
      8c:	89 f1                	mov    %esi,%ecx
      8e:	88 4d f4             	mov    %cl,-0xc(%rbp)
      91:	88 55 f0             	mov    %dl,-0x10(%rbp)
      94:	88 45 ec             	mov    %al,-0x14(%rbp)
      97:	0f b6 45 f4          	movzbl -0xc(%rbp),%eax
      9b:	83 f8 0a             	cmp    $0xa,%eax
      9e:	74 5b                	je     fb <_ZN9Softfloat10get_resultEhhhmmm+0x89>
      a0:	83 f8 0a             	cmp    $0xa,%eax
      a3:	7f 7b                	jg     120 <_ZN9Softfloat10get_resultEhhhmmm+0xae>
      a5:	83 f8 08             	cmp    $0x8,%eax
      a8:	74 07                	je     b1 <_ZN9Softfloat10get_resultEhhhmmm+0x3f>
      aa:	83 f8 09             	cmp    $0x9,%eax
      ad:	74 27                	je     d6 <_ZN9Softfloat10get_resultEhhhmmm+0x64>
      af:	eb 6f                	jmp    120 <_ZN9Softfloat10get_resultEhhhmmm+0xae>
      b1:	0f b6 55 ec          	movzbl -0x14(%rbp),%edx
      b5:	0f b6 75 f0          	movzbl -0x10(%rbp),%esi
      b9:	48 8b 7d d8          	mov    -0x28(%rbp),%rdi
      bd:	48 8b 4d e0          	mov    -0x20(%rbp),%rcx
      c1:	48 8b 45 f8          	mov    -0x8(%rbp),%rax
      c5:	4c 8b 4d 10          	mov    0x10(%rbp),%r9
      c9:	49 89 f8             	mov    %rdi,%r8
      cc:	48 89 c7             	mov    %rax,%rdi
      cf:	e8 00 00 00 00       	call   d4 <_ZN9Softfloat10get_resultEhhhmmm+0x62>
      d4:	eb 50                	jmp    126 <_ZN9Softfloat10get_resultEhhhmmm+0xb4>
      d6:	0f b6 55 ec          	movzbl -0x14(%rbp),%edx
      da:	0f b6 75 f0          	movzbl -0x10(%rbp),%esi
      de:	48 8b 7d d8          	mov    -0x28(%rbp),%rdi
      e2:	48 8b 4d e0          	mov    -0x20(%rbp),%rcx
      e6:	48 8b 45 f8          	mov    -0x8(%rbp),%rax
      ea:	4c 8b 4d 10          	mov    0x10(%rbp),%r9
      ee:	49 89 f8             	mov    %rdi,%r8
      f1:	48 89 c7             	mov    %rax,%rdi
      f4:	e8 00 00 00 00       	call   f9 <_ZN9Softfloat10get_resultEhhhmmm+0x87>
      f9:	eb 2b                	jmp    126 <_ZN9Softfloat10get_resultEhhhmmm+0xb4>
      fb:	0f b6 55 ec          	movzbl -0x14(%rbp),%edx
      ff:	0f b6 75 f0          	movzbl -0x10(%rbp),%esi
     103:	48 8b 7d d8          	mov    -0x28(%rbp),%rdi
     107:	48 8b 4d e0          	mov    -0x20(%rbp),%rcx
     10b:	48 8b 45 f8          	mov    -0x8(%rbp),%rax
     10f:	4c 8b 4d 10          	mov    0x10(%rbp),%r9
     113:	49 89 f8             	mov    %rdi,%r8
     116:	48 89 c7             	mov    %rax,%rdi
     119:	e8 00 00 00 00       	call   11e <_ZN9Softfloat10get_resultEhhhmmm+0xac>
     11e:	eb 06                	jmp    126 <_ZN9Softfloat10get_resultEhhhmmm+0xb4>
     120:	90                   	nop
     121:	b8 00 00 00 00       	mov    $0x0,%eax
     126:	c9                   	leave  
     127:	c3                   	ret    

0000000000000128 <_ZN9Softfloat10soft_arithEhhmmm>:
_ZN9Softfloat10soft_arithEhhmmm():
     128:	f3 0f 1e fa          	endbr64 
     12c:	55                   	push   %rbp
     12d:	48 89 e5             	mov    %rsp,%rbp
     130:	48 83 ec 40          	sub    $0x40,%rsp
     134:	48 89 7d e8          	mov    %rdi,-0x18(%rbp)
     138:	89 d0                	mov    %edx,%eax
     13a:	48 89 4d d8          	mov    %rcx,-0x28(%rbp)
     13e:	4c 89 45 d0          	mov    %r8,-0x30(%rbp)
     142:	4c 89 4d c8          	mov    %r9,-0x38(%rbp)
     146:	89 f2                	mov    %esi,%edx
     148:	88 55 e4             	mov    %dl,-0x1c(%rbp)
     14b:	88 45 e0             	mov    %al,-0x20(%rbp)
     14e:	0f b6 45 e0          	movzbl -0x20(%rbp),%eax
     152:	83 e0 02             	and    $0x2,%eax
     155:	85 c0                	test   %eax,%eax
     157:	0f 84 59 03 00 00    	je     4b6 <_ZN9Softfloat10soft_arithEhhmmm+0x38e>
     15d:	0f b6 45 e4          	movzbl -0x1c(%rbp),%eax
     161:	83 f8 14             	cmp    $0x14,%eax
     164:	0f 87 d9 06 00 00    	ja     843 <_ZN9Softfloat10soft_arithEhhmmm+0x71b>
     16a:	89 c0                	mov    %eax,%eax
     16c:	48 8d 14 85 00 00 00 	lea    0x0(,%rax,4),%rdx
     173:	00 
     174:	48 8d 05 00 00 00 00 	lea    0x0(%rip),%rax        # 17b <_ZN9Softfloat10soft_arithEhhmmm+0x53>
     17b:	8b 04 02             	mov    (%rdx,%rax,1),%eax
     17e:	48 98                	cltq   
     180:	48 8d 15 00 00 00 00 	lea    0x0(%rip),%rdx        # 187 <_ZN9Softfloat10soft_arithEhhmmm+0x5f>
     187:	48 01 d0             	add    %rdx,%rax
     18a:	3e ff e0             	notrack jmp *%rax
     18d:	48 8b 55 e8          	mov    -0x18(%rbp),%rdx
     191:	48 8b 75 d0          	mov    -0x30(%rbp),%rsi
     195:	48 8b 45 d8          	mov    -0x28(%rbp),%rax
     199:	49 89 d0             	mov    %rdx,%r8
     19c:	b9 00 00 00 00       	mov    $0x0,%ecx
     1a1:	ba 00 00 00 00       	mov    $0x0,%edx
     1a6:	48 89 c7             	mov    %rax,%rdi
     1a9:	e8 00 00 00 00       	call   1ae <_ZN9Softfloat10soft_arithEhhmmm+0x86>
     1ae:	48 89 45 f8          	mov    %rax,-0x8(%rbp)
     1b2:	e9 90 06 00 00       	jmp    847 <_ZN9Softfloat10soft_arithEhhmmm+0x71f>
     1b7:	48 8b 55 e8          	mov    -0x18(%rbp),%rdx
     1bb:	48 8b 75 d0          	mov    -0x30(%rbp),%rsi
     1bf:	48 8b 45 d8          	mov    -0x28(%rbp),%rax
     1c3:	49 89 d0             	mov    %rdx,%r8
     1c6:	b9 00 00 00 00       	mov    $0x0,%ecx
     1cb:	ba 00 00 00 00       	mov    $0x0,%edx
     1d0:	48 89 c7             	mov    %rax,%rdi
     1d3:	e8 00 00 00 00       	call   1d8 <_ZN9Softfloat10soft_arithEhhmmm+0xb0>
     1d8:	48 89 45 f8          	mov    %rax,-0x8(%rbp)
     1dc:	e9 66 06 00 00       	jmp    847 <_ZN9Softfloat10soft_arithEhhmmm+0x71f>
     1e1:	48 8b 55 e8          	mov    -0x18(%rbp),%rdx
     1e5:	48 8b 75 d0          	mov    -0x30(%rbp),%rsi
     1e9:	48 8b 45 d8          	mov    -0x28(%rbp),%rax
     1ed:	49 89 d0             	mov    %rdx,%r8
     1f0:	b9 00 00 00 00       	mov    $0x0,%ecx
     1f5:	ba 00 00 00 00       	mov    $0x0,%edx
     1fa:	48 89 c7             	mov    %rax,%rdi
     1fd:	e8 00 00 00 00       	call   202 <_ZN9Softfloat10soft_arithEhhmmm+0xda>
     202:	48 89 45 f8          	mov    %rax,-0x8(%rbp)
     206:	e9 3c 06 00 00       	jmp    847 <_ZN9Softfloat10soft_arithEhhmmm+0x71f>
     20b:	48 8b 55 e8          	mov    -0x18(%rbp),%rdx
     20f:	48 8b 75 d0          	mov    -0x30(%rbp),%rsi
     213:	48 8b 45 d8          	mov    -0x28(%rbp),%rax
     217:	49 89 d0             	mov    %rdx,%r8
     21a:	b9 00 00 00 00       	mov    $0x0,%ecx
     21f:	ba 00 00 00 00       	mov    $0x0,%edx
     224:	48 89 c7             	mov    %rax,%rdi
     227:	e8 00 00 00 00       	call   22c <_ZN9Softfloat10soft_arithEhhmmm+0x104>
     22c:	48 89 45 f8          	mov    %rax,-0x8(%rbp)
     230:	e9 12 06 00 00       	jmp    847 <_ZN9Softfloat10soft_arithEhhmmm+0x71f>
     235:	48 8b 4d e8          	mov    -0x18(%rbp),%rcx
     239:	48 8b 55 c8          	mov    -0x38(%rbp),%rdx
     23d:	48 8b 75 d0          	mov    -0x30(%rbp),%rsi
     241:	48 8b 45 d8          	mov    -0x28(%rbp),%rax
     245:	49 89 c9             	mov    %rcx,%r9
     248:	41 b8 00 00 00 00    	mov    $0x0,%r8d
     24e:	b9 00 00 00 00       	mov    $0x0,%ecx
     253:	48 89 c7             	mov    %rax,%rdi
     256:	e8 00 00 00 00       	call   25b <_ZN9Softfloat10soft_arithEhhmmm+0x133>
     25b:	48 89 45 f8          	mov    %rax,-0x8(%rbp)
     25f:	e9 e3 05 00 00       	jmp    847 <_ZN9Softfloat10soft_arithEhhmmm+0x71f>
     264:	48 8b 4d e8          	mov    -0x18(%rbp),%rcx
     268:	48 8b 55 c8          	mov    -0x38(%rbp),%rdx
     26c:	48 8b 75 d0          	mov    -0x30(%rbp),%rsi
     270:	48 8b 45 d8          	mov    -0x28(%rbp),%rax
     274:	49 89 c9             	mov    %rcx,%r9
     277:	41 b8 00 00 00 00    	mov    $0x0,%r8d
     27d:	b9 00 00 00 00       	mov    $0x0,%ecx
     282:	48 89 c7             	mov    %rax,%rdi
     285:	e8 00 00 00 00       	call   28a <_ZN9Softfloat10soft_arithEhhmmm+0x162>
     28a:	48 89 45 f8          	mov    %rax,-0x8(%rbp)
     28e:	e9 b4 05 00 00       	jmp    847 <_ZN9Softfloat10soft_arithEhhmmm+0x71f>
     293:	48 8b 4d e8          	mov    -0x18(%rbp),%rcx
     297:	48 8b 55 c8          	mov    -0x38(%rbp),%rdx
     29b:	48 8b 75 d0          	mov    -0x30(%rbp),%rsi
     29f:	48 8b 45 d8          	mov    -0x28(%rbp),%rax
     2a3:	49 89 c9             	mov    %rcx,%r9
     2a6:	41 b8 00 00 00 00    	mov    $0x0,%r8d
     2ac:	b9 00 00 00 00       	mov    $0x0,%ecx
     2b1:	48 89 c7             	mov    %rax,%rdi
     2b4:	e8 00 00 00 00       	call   2b9 <_ZN9Softfloat10soft_arithEhhmmm+0x191>
     2b9:	48 89 45 f8          	mov    %rax,-0x8(%rbp)
     2bd:	e9 85 05 00 00       	jmp    847 <_ZN9Softfloat10soft_arithEhhmmm+0x71f>
     2c2:	48 8b 4d e8          	mov    -0x18(%rbp),%rcx
     2c6:	48 8b 55 c8          	mov    -0x38(%rbp),%rdx
     2ca:	48 8b 75 d0          	mov    -0x30(%rbp),%rsi
     2ce:	48 8b 45 d8          	mov    -0x28(%rbp),%rax
     2d2:	49 89 c9             	mov    %rcx,%r9
     2d5:	41 b8 00 00 00 00    	mov    $0x0,%r8d
     2db:	b9 00 00 00 00       	mov    $0x0,%ecx
     2e0:	48 89 c7             	mov    %rax,%rdi
     2e3:	e8 00 00 00 00       	call   2e8 <_ZN9Softfloat10soft_arithEhhmmm+0x1c0>
     2e8:	48 89 45 f8          	mov    %rax,-0x8(%rbp)
     2ec:	e9 56 05 00 00       	jmp    847 <_ZN9Softfloat10soft_arithEhhmmm+0x71f>
     2f1:	48 8b 55 e8          	mov    -0x18(%rbp),%rdx
     2f5:	48 8b 75 d0          	mov    -0x30(%rbp),%rsi
     2f9:	48 8b 45 d8          	mov    -0x28(%rbp),%rax
     2fd:	49 89 d0             	mov    %rdx,%r8
     300:	b9 00 00 00 00       	mov    $0x0,%ecx
     305:	ba 00 00 00 00       	mov    $0x0,%edx
     30a:	48 89 c7             	mov    %rax,%rdi
     30d:	e8 00 00 00 00       	call   312 <_ZN9Softfloat10soft_arithEhhmmm+0x1ea>
     312:	48 89 45 f8          	mov    %rax,-0x8(%rbp)
     316:	e9 2c 05 00 00       	jmp    847 <_ZN9Softfloat10soft_arithEhhmmm+0x71f>
     31b:	48 8b 55 e8          	mov    -0x18(%rbp),%rdx
     31f:	48 8b 75 d0          	mov    -0x30(%rbp),%rsi
     323:	48 8b 45 d8          	mov    -0x28(%rbp),%rax
     327:	49 89 d0             	mov    %rdx,%r8
     32a:	b9 00 00 00 00       	mov    $0x0,%ecx
     32f:	ba 00 00 00 00       	mov    $0x0,%edx
     334:	48 89 c7             	mov    %rax,%rdi
     337:	e8 00 00 00 00       	call   33c <_ZN9Softfloat10soft_arithEhhmmm+0x214>
     33c:	48 89 45 f8          	mov    %rax,-0x8(%rbp)
     340:	e9 02 05 00 00       	jmp    847 <_ZN9Softfloat10soft_arithEhhmmm+0x71f>
     345:	48 8b 55 e8          	mov    -0x18(%rbp),%rdx
     349:	48 8b 75 d0          	mov    -0x30(%rbp),%rsi
     34d:	48 8b 45 d8          	mov    -0x28(%rbp),%rax
     351:	49 89 d0             	mov    %rdx,%r8
     354:	b9 00 00 00 00       	mov    $0x0,%ecx
     359:	ba 00 00 00 00       	mov    $0x0,%edx
     35e:	48 89 c7             	mov    %rax,%rdi
     361:	e8 00 00 00 00       	call   366 <_ZN9Softfloat10soft_arithEhhmmm+0x23e>
     366:	48 89 45 f8          	mov    %rax,-0x8(%rbp)
     36a:	e9 d8 04 00 00       	jmp    847 <_ZN9Softfloat10soft_arithEhhmmm+0x71f>
     36f:	48 8b 55 e8          	mov    -0x18(%rbp),%rdx
     373:	48 8b 75 d0          	mov    -0x30(%rbp),%rsi
     377:	48 8b 45 d8          	mov    -0x28(%rbp),%rax
     37b:	49 89 d0             	mov    %rdx,%r8
     37e:	b9 00 00 00 00       	mov    $0x0,%ecx
     383:	ba 00 00 00 00       	mov    $0x0,%edx
     388:	48 89 c7             	mov    %rax,%rdi
     38b:	e8 00 00 00 00       	call   390 <_ZN9Softfloat10soft_arithEhhmmm+0x268>
     390:	48 89 45 f8          	mov    %rax,-0x8(%rbp)
     394:	e9 ae 04 00 00       	jmp    847 <_ZN9Softfloat10soft_arithEhhmmm+0x71f>
     399:	48 8b 45 d8          	mov    -0x28(%rbp),%rax
     39d:	48 89 c7             	mov    %rax,%rdi
     3a0:	e8 00 00 00 00       	call   3a5 <_ZN9Softfloat10soft_arithEhhmmm+0x27d>
     3a5:	48 89 45 f8          	mov    %rax,-0x8(%rbp)
     3a9:	e9 99 04 00 00       	jmp    847 <_ZN9Softfloat10soft_arithEhhmmm+0x71f>
     3ae:	48 8b 45 d8          	mov    -0x28(%rbp),%rax
     3b2:	48 89 c7             	mov    %rax,%rdi
     3b5:	e8 00 00 00 00       	call   3ba <_ZN9Softfloat10soft_arithEhhmmm+0x292>
     3ba:	48 89 45 f8          	mov    %rax,-0x8(%rbp)
     3be:	e9 84 04 00 00       	jmp    847 <_ZN9Softfloat10soft_arithEhhmmm+0x71f>
     3c3:	48 8b 55 e8          	mov    -0x18(%rbp),%rdx
     3c7:	48 8b 45 d8          	mov    -0x28(%rbp),%rax
     3cb:	48 89 d1             	mov    %rdx,%rcx
     3ce:	ba 00 00 00 00       	mov    $0x0,%edx
     3d3:	be 00 00 00 00       	mov    $0x0,%esi
     3d8:	48 89 c7             	mov    %rax,%rdi
     3db:	e8 00 00 00 00       	call   3e0 <_ZN9Softfloat10soft_arithEhhmmm+0x2b8>
     3e0:	48 89 45 f8          	mov    %rax,-0x8(%rbp)
     3e4:	e9 5e 04 00 00       	jmp    847 <_ZN9Softfloat10soft_arithEhhmmm+0x71f>
     3e9:	48 8b 55 e8          	mov    -0x18(%rbp),%rdx
     3ed:	48 8b 45 d8          	mov    -0x28(%rbp),%rax
     3f1:	48 89 d1             	mov    %rdx,%rcx
     3f4:	ba 00 00 00 00       	mov    $0x0,%edx
     3f9:	be 00 00 00 00       	mov    $0x0,%esi
     3fe:	48 89 c7             	mov    %rax,%rdi
     401:	e8 00 00 00 00       	call   406 <_ZN9Softfloat10soft_arithEhhmmm+0x2de>
     406:	48 89 45 f8          	mov    %rax,-0x8(%rbp)
     40a:	e9 38 04 00 00       	jmp    847 <_ZN9Softfloat10soft_arithEhhmmm+0x71f>
     40f:	48 8b 55 e8          	mov    -0x18(%rbp),%rdx
     413:	48 8b 45 d8          	mov    -0x28(%rbp),%rax
     417:	48 89 d1             	mov    %rdx,%rcx
     41a:	ba 00 00 00 00       	mov    $0x0,%edx
     41f:	be 00 00 00 00       	mov    $0x0,%esi
     424:	48 89 c7             	mov    %rax,%rdi
     427:	e8 00 00 00 00       	call   42c <_ZN9Softfloat10soft_arithEhhmmm+0x304>
     42c:	48 89 45 f8          	mov    %rax,-0x8(%rbp)
     430:	e9 12 04 00 00       	jmp    847 <_ZN9Softfloat10soft_arithEhhmmm+0x71f>
     435:	48 8b 55 e8          	mov    -0x18(%rbp),%rdx
     439:	48 8b 75 d0          	mov    -0x30(%rbp),%rsi
     43d:	48 8b 45 d8          	mov    -0x28(%rbp),%rax
     441:	49 89 d0             	mov    %rdx,%r8
     444:	b9 00 00 00 00       	mov    $0x0,%ecx
     449:	ba 00 00 00 00       	mov    $0x0,%edx
     44e:	48 89 c7             	mov    %rax,%rdi
     451:	e8 00 00 00 00       	call   456 <_ZN9Softfloat10soft_arithEhhmmm+0x32e>
     456:	48 89 45 f8          	mov    %rax,-0x8(%rbp)
     45a:	e9 e8 03 00 00       	jmp    847 <_ZN9Softfloat10soft_arithEhhmmm+0x71f>
     45f:	48 8b 55 e8          	mov    -0x18(%rbp),%rdx
     463:	48 8b 45 d8          	mov    -0x28(%rbp),%rax
     467:	48 89 d1             	mov    %rdx,%rcx
     46a:	ba 00 00 00 00       	mov    $0x0,%edx
     46f:	be 00 00 00 00       	mov    $0x0,%esi
     474:	48 89 c7             	mov    %rax,%rdi
     477:	e8 00 00 00 00       	call   47c <_ZN9Softfloat10soft_arithEhhmmm+0x354>
     47c:	48 89 45 f8          	mov    %rax,-0x8(%rbp)
     480:	e9 c2 03 00 00       	jmp    847 <_ZN9Softfloat10soft_arithEhhmmm+0x71f>
     485:	48 8b 55 d0          	mov    -0x30(%rbp),%rdx
     489:	48 8b 45 d8          	mov    -0x28(%rbp),%rax
     48d:	48 89 d6             	mov    %rdx,%rsi
     490:	48 89 c7             	mov    %rax,%rdi
     493:	e8 00 00 00 00       	call   498 <_ZN9Softfloat10soft_arithEhhmmm+0x370>
     498:	48 89 45 f8          	mov    %rax,-0x8(%rbp)
     49c:	e9 a6 03 00 00       	jmp    847 <_ZN9Softfloat10soft_arithEhhmmm+0x71f>
     4a1:	48 8b 45 d8          	mov    -0x28(%rbp),%rax
     4a5:	48 89 c7             	mov    %rax,%rdi
     4a8:	e8 00 00 00 00       	call   4ad <_ZN9Softfloat10soft_arithEhhmmm+0x385>
     4ad:	48 89 45 f8          	mov    %rax,-0x8(%rbp)
     4b1:	e9 91 03 00 00       	jmp    847 <_ZN9Softfloat10soft_arithEhhmmm+0x71f>
     4b6:	0f b6 45 e4          	movzbl -0x1c(%rbp),%eax
     4ba:	83 f8 14             	cmp    $0x14,%eax
     4bd:	0f 87 83 03 00 00    	ja     846 <_ZN9Softfloat10soft_arithEhhmmm+0x71e>
     4c3:	89 c0                	mov    %eax,%eax
     4c5:	48 8d 14 85 00 00 00 	lea    0x0(,%rax,4),%rdx
     4cc:	00 
     4cd:	48 8d 05 00 00 00 00 	lea    0x0(%rip),%rax        # 4d4 <_ZN9Softfloat10soft_arithEhhmmm+0x3ac>
     4d4:	8b 04 02             	mov    (%rdx,%rax,1),%eax
     4d7:	48 98                	cltq   
     4d9:	48 8d 15 00 00 00 00 	lea    0x0(%rip),%rdx        # 4e0 <_ZN9Softfloat10soft_arithEhhmmm+0x3b8>
     4e0:	48 01 d0             	add    %rdx,%rax
     4e3:	3e ff e0             	notrack jmp *%rax
     4e6:	48 8b 55 e8          	mov    -0x18(%rbp),%rdx
     4ea:	48 8b 45 d0          	mov    -0x30(%rbp),%rax
     4ee:	89 c6                	mov    %eax,%esi
     4f0:	48 8b 45 d8          	mov    -0x28(%rbp),%rax
     4f4:	49 89 d0             	mov    %rdx,%r8
     4f7:	b9 00 00 00 00       	mov    $0x0,%ecx
     4fc:	ba 00 00 00 00       	mov    $0x0,%edx
     501:	89 c7                	mov    %eax,%edi
     503:	e8 00 00 00 00       	call   508 <_ZN9Softfloat10soft_arithEhhmmm+0x3e0>
     508:	89 c0                	mov    %eax,%eax
     50a:	48 89 45 f8          	mov    %rax,-0x8(%rbp)
     50e:	e9 34 03 00 00       	jmp    847 <_ZN9Softfloat10soft_arithEhhmmm+0x71f>
     513:	48 8b 55 e8          	mov    -0x18(%rbp),%rdx
     517:	48 8b 45 d0          	mov    -0x30(%rbp),%rax
     51b:	89 c6                	mov    %eax,%esi
     51d:	48 8b 45 d8          	mov    -0x28(%rbp),%rax
     521:	49 89 d0             	mov    %rdx,%r8
     524:	b9 00 00 00 00       	mov    $0x0,%ecx
     529:	ba 00 00 00 00       	mov    $0x0,%edx
     52e:	89 c7                	mov    %eax,%edi
     530:	e8 00 00 00 00       	call   535 <_ZN9Softfloat10soft_arithEhhmmm+0x40d>
     535:	89 c0                	mov    %eax,%eax
     537:	48 89 45 f8          	mov    %rax,-0x8(%rbp)
     53b:	e9 07 03 00 00       	jmp    847 <_ZN9Softfloat10soft_arithEhhmmm+0x71f>
     540:	48 8b 55 e8          	mov    -0x18(%rbp),%rdx
     544:	48 8b 45 d0          	mov    -0x30(%rbp),%rax
     548:	89 c6                	mov    %eax,%esi
     54a:	48 8b 45 d8          	mov    -0x28(%rbp),%rax
     54e:	49 89 d0             	mov    %rdx,%r8
     551:	b9 00 00 00 00       	mov    $0x0,%ecx
     556:	ba 00 00 00 00       	mov    $0x0,%edx
     55b:	89 c7                	mov    %eax,%edi
     55d:	e8 00 00 00 00       	call   562 <_ZN9Softfloat10soft_arithEhhmmm+0x43a>
     562:	89 c0                	mov    %eax,%eax
     564:	48 89 45 f8          	mov    %rax,-0x8(%rbp)
     568:	e9 da 02 00 00       	jmp    847 <_ZN9Softfloat10soft_arithEhhmmm+0x71f>
     56d:	48 8b 55 e8          	mov    -0x18(%rbp),%rdx
     571:	48 8b 45 d0          	mov    -0x30(%rbp),%rax
     575:	89 c6                	mov    %eax,%esi
     577:	48 8b 45 d8          	mov    -0x28(%rbp),%rax
     57b:	49 89 d0             	mov    %rdx,%r8
     57e:	b9 00 00 00 00       	mov    $0x0,%ecx
     583:	ba 00 00 00 00       	mov    $0x0,%edx
     588:	89 c7                	mov    %eax,%edi
     58a:	e8 00 00 00 00       	call   58f <_ZN9Softfloat10soft_arithEhhmmm+0x467>
     58f:	89 c0                	mov    %eax,%eax
     591:	48 89 45 f8          	mov    %rax,-0x8(%rbp)
     595:	e9 ad 02 00 00       	jmp    847 <_ZN9Softfloat10soft_arithEhhmmm+0x71f>
     59a:	48 8b 55 e8          	mov    -0x18(%rbp),%rdx
     59e:	48 8b 45 c8          	mov    -0x38(%rbp),%rax
     5a2:	89 c7                	mov    %eax,%edi
     5a4:	48 8b 45 d0          	mov    -0x30(%rbp),%rax
     5a8:	89 c6                	mov    %eax,%esi
     5aa:	48 8b 45 d8          	mov    -0x28(%rbp),%rax
     5ae:	49 89 d1             	mov    %rdx,%r9
     5b1:	41 b8 00 00 00 00    	mov    $0x0,%r8d
     5b7:	b9 00 00 00 00       	mov    $0x0,%ecx
     5bc:	89 fa                	mov    %edi,%edx
     5be:	89 c7                	mov    %eax,%edi
     5c0:	e8 00 00 00 00       	call   5c5 <_ZN9Softfloat10soft_arithEhhmmm+0x49d>
     5c5:	89 c0                	mov    %eax,%eax
     5c7:	48 89 45 f8          	mov    %rax,-0x8(%rbp)
     5cb:	e9 77 02 00 00       	jmp    847 <_ZN9Softfloat10soft_arithEhhmmm+0x71f>
     5d0:	48 8b 55 e8          	mov    -0x18(%rbp),%rdx
     5d4:	48 8b 45 c8          	mov    -0x38(%rbp),%rax
     5d8:	89 c7                	mov    %eax,%edi
     5da:	48 8b 45 d0          	mov    -0x30(%rbp),%rax
     5de:	89 c6                	mov    %eax,%esi
     5e0:	48 8b 45 d8          	mov    -0x28(%rbp),%rax
     5e4:	49 89 d1             	mov    %rdx,%r9
     5e7:	41 b8 00 00 00 00    	mov    $0x0,%r8d
     5ed:	b9 00 00 00 00       	mov    $0x0,%ecx
     5f2:	89 fa                	mov    %edi,%edx
     5f4:	89 c7                	mov    %eax,%edi
     5f6:	e8 00 00 00 00       	call   5fb <_ZN9Softfloat10soft_arithEhhmmm+0x4d3>
     5fb:	89 c0                	mov    %eax,%eax
     5fd:	48 89 45 f8          	mov    %rax,-0x8(%rbp)
     601:	e9 41 02 00 00       	jmp    847 <_ZN9Softfloat10soft_arithEhhmmm+0x71f>
     606:	48 8b 55 e8          	mov    -0x18(%rbp),%rdx
     60a:	48 8b 45 c8          	mov    -0x38(%rbp),%rax
     60e:	89 c7                	mov    %eax,%edi
     610:	48 8b 45 d0          	mov    -0x30(%rbp),%rax
     614:	89 c6                	mov    %eax,%esi
     616:	48 8b 45 d8          	mov    -0x28(%rbp),%rax
     61a:	49 89 d1             	mov    %rdx,%r9
     61d:	41 b8 00 00 00 00    	mov    $0x0,%r8d
     623:	b9 00 00 00 00       	mov    $0x0,%ecx
     628:	89 fa                	mov    %edi,%edx
     62a:	89 c7                	mov    %eax,%edi
     62c:	e8 00 00 00 00       	call   631 <_ZN9Softfloat10soft_arithEhhmmm+0x509>
     631:	89 c0                	mov    %eax,%eax
     633:	48 89 45 f8          	mov    %rax,-0x8(%rbp)
     637:	e9 0b 02 00 00       	jmp    847 <_ZN9Softfloat10soft_arithEhhmmm+0x71f>
     63c:	48 8b 55 e8          	mov    -0x18(%rbp),%rdx
     640:	48 8b 45 c8          	mov    -0x38(%rbp),%rax
     644:	89 c7                	mov    %eax,%edi
     646:	48 8b 45 d0          	mov    -0x30(%rbp),%rax
     64a:	89 c6                	mov    %eax,%esi
     64c:	48 8b 45 d8          	mov    -0x28(%rbp),%rax
     650:	49 89 d1             	mov    %rdx,%r9
     653:	41 b8 00 00 00 00    	mov    $0x0,%r8d
     659:	b9 00 00 00 00       	mov    $0x0,%ecx
     65e:	89 fa                	mov    %edi,%edx
     660:	89 c7                	mov    %eax,%edi
     662:	e8 00 00 00 00       	call   667 <_ZN9Softfloat10soft_arithEhhmmm+0x53f>
     667:	89 c0                	mov    %eax,%eax
     669:	48 89 45 f8          	mov    %rax,-0x8(%rbp)
     66d:	e9 d5 01 00 00       	jmp    847 <_ZN9Softfloat10soft_arithEhhmmm+0x71f>
     672:	48 8b 55 e8          	mov    -0x18(%rbp),%rdx
     676:	48 8b 45 d0          	mov    -0x30(%rbp),%rax
     67a:	89 c6                	mov    %eax,%esi
     67c:	48 8b 45 d8          	mov    -0x28(%rbp),%rax
     680:	49 89 d0             	mov    %rdx,%r8
     683:	b9 00 00 00 00       	mov    $0x0,%ecx
     688:	ba 00 00 00 00       	mov    $0x0,%edx
     68d:	89 c7                	mov    %eax,%edi
     68f:	e8 00 00 00 00       	call   694 <_ZN9Softfloat10soft_arithEhhmmm+0x56c>
     694:	89 c0                	mov    %eax,%eax
     696:	48 89 45 f8          	mov    %rax,-0x8(%rbp)
     69a:	e9 a8 01 00 00       	jmp    847 <_ZN9Softfloat10soft_arithEhhmmm+0x71f>
     69f:	48 8b 55 e8          	mov    -0x18(%rbp),%rdx
     6a3:	48 8b 45 d0          	mov    -0x30(%rbp),%rax
     6a7:	89 c6                	mov    %eax,%esi
     6a9:	48 8b 45 d8          	mov    -0x28(%rbp),%rax
     6ad:	49 89 d0             	mov    %rdx,%r8
     6b0:	b9 00 00 00 00       	mov    $0x0,%ecx
     6b5:	ba 00 00 00 00       	mov    $0x0,%edx
     6ba:	89 c7                	mov    %eax,%edi
     6bc:	e8 00 00 00 00       	call   6c1 <_ZN9Softfloat10soft_arithEhhmmm+0x599>
     6c1:	89 c0                	mov    %eax,%eax
     6c3:	48 89 45 f8          	mov    %rax,-0x8(%rbp)
     6c7:	e9 7b 01 00 00       	jmp    847 <_ZN9Softfloat10soft_arithEhhmmm+0x71f>
     6cc:	48 8b 55 e8          	mov    -0x18(%rbp),%rdx
     6d0:	48 8b 45 d0          	mov    -0x30(%rbp),%rax
     6d4:	89 c6                	mov    %eax,%esi
     6d6:	48 8b 45 d8          	mov    -0x28(%rbp),%rax
     6da:	49 89 d0             	mov    %rdx,%r8
     6dd:	b9 00 00 00 00       	mov    $0x0,%ecx
     6e2:	ba 00 00 00 00       	mov    $0x0,%edx
     6e7:	89 c7                	mov    %eax,%edi
     6e9:	e8 00 00 00 00       	call   6ee <_ZN9Softfloat10soft_arithEhhmmm+0x5c6>
     6ee:	89 c0                	mov    %eax,%eax
     6f0:	48 89 45 f8          	mov    %rax,-0x8(%rbp)
     6f4:	e9 4e 01 00 00       	jmp    847 <_ZN9Softfloat10soft_arithEhhmmm+0x71f>
     6f9:	48 8b 55 e8          	mov    -0x18(%rbp),%rdx
     6fd:	48 8b 45 d0          	mov    -0x30(%rbp),%rax
     701:	89 c6                	mov    %eax,%esi
     703:	48 8b 45 d8          	mov    -0x28(%rbp),%rax
     707:	49 89 d0             	mov    %rdx,%r8
     70a:	b9 00 00 00 00       	mov    $0x0,%ecx
     70f:	ba 00 00 00 00       	mov    $0x0,%edx
     714:	89 c7                	mov    %eax,%edi
     716:	e8 00 00 00 00       	call   71b <_ZN9Softfloat10soft_arithEhhmmm+0x5f3>
     71b:	89 c0                	mov    %eax,%eax
     71d:	48 89 45 f8          	mov    %rax,-0x8(%rbp)
     721:	e9 21 01 00 00       	jmp    847 <_ZN9Softfloat10soft_arithEhhmmm+0x71f>
     726:	48 8b 45 d8          	mov    -0x28(%rbp),%rax
     72a:	89 c7                	mov    %eax,%edi
     72c:	e8 00 00 00 00       	call   731 <_ZN9Softfloat10soft_arithEhhmmm+0x609>
     731:	89 c0                	mov    %eax,%eax
     733:	48 89 45 f8          	mov    %rax,-0x8(%rbp)
     737:	e9 0b 01 00 00       	jmp    847 <_ZN9Softfloat10soft_arithEhhmmm+0x71f>
     73c:	48 8b 45 d8          	mov    -0x28(%rbp),%rax
     740:	89 c7                	mov    %eax,%edi
     742:	e8 00 00 00 00       	call   747 <_ZN9Softfloat10soft_arithEhhmmm+0x61f>
     747:	89 c0                	mov    %eax,%eax
     749:	48 89 45 f8          	mov    %rax,-0x8(%rbp)
     74d:	e9 f5 00 00 00       	jmp    847 <_ZN9Softfloat10soft_arithEhhmmm+0x71f>
     752:	48 8b 45 e8          	mov    -0x18(%rbp),%rax
     756:	48 8b 55 d8          	mov    -0x28(%rbp),%rdx
     75a:	89 d7                	mov    %edx,%edi
     75c:	48 89 c1             	mov    %rax,%rcx
     75f:	ba 00 00 00 00       	mov    $0x0,%edx
     764:	be 00 00 00 00       	mov    $0x0,%esi
     769:	e8 00 00 00 00       	call   76e <_ZN9Softfloat10soft_arithEhhmmm+0x646>
     76e:	89 c0                	mov    %eax,%eax
     770:	48 89 45 f8          	mov    %rax,-0x8(%rbp)
     774:	e9 ce 00 00 00       	jmp    847 <_ZN9Softfloat10soft_arithEhhmmm+0x71f>
     779:	48 8b 45 e8          	mov    -0x18(%rbp),%rax
     77d:	48 8b 55 d8          	mov    -0x28(%rbp),%rdx
     781:	89 d7                	mov    %edx,%edi
     783:	48 89 c1             	mov    %rax,%rcx
     786:	ba 00 00 00 00       	mov    $0x0,%edx
     78b:	be 00 00 00 00       	mov    $0x0,%esi
     790:	e8 00 00 00 00       	call   795 <_ZN9Softfloat10soft_arithEhhmmm+0x66d>
     795:	89 c0                	mov    %eax,%eax
     797:	48 89 45 f8          	mov    %rax,-0x8(%rbp)
     79b:	e9 a7 00 00 00       	jmp    847 <_ZN9Softfloat10soft_arithEhhmmm+0x71f>
     7a0:	48 8b 45 e8          	mov    -0x18(%rbp),%rax
     7a4:	48 8b 55 d8          	mov    -0x28(%rbp),%rdx
     7a8:	89 d7                	mov    %edx,%edi
     7aa:	48 89 c1             	mov    %rax,%rcx
     7ad:	ba 00 00 00 00       	mov    $0x0,%edx
     7b2:	be 00 00 00 00       	mov    $0x0,%esi
     7b7:	e8 00 00 00 00       	call   7bc <_ZN9Softfloat10soft_arithEhhmmm+0x694>
     7bc:	89 c0                	mov    %eax,%eax
     7be:	48 89 45 f8          	mov    %rax,-0x8(%rbp)
     7c2:	e9 80 00 00 00       	jmp    847 <_ZN9Softfloat10soft_arithEhhmmm+0x71f>
     7c7:	48 8b 55 e8          	mov    -0x18(%rbp),%rdx
     7cb:	48 8b 45 d0          	mov    -0x30(%rbp),%rax
     7cf:	89 c6                	mov    %eax,%esi
     7d1:	48 8b 45 d8          	mov    -0x28(%rbp),%rax
     7d5:	49 89 d0             	mov    %rdx,%r8
     7d8:	b9 00 00 00 00       	mov    $0x0,%ecx
     7dd:	ba 00 00 00 00       	mov    $0x0,%edx
     7e2:	89 c7                	mov    %eax,%edi
     7e4:	e8 00 00 00 00       	call   7e9 <_ZN9Softfloat10soft_arithEhhmmm+0x6c1>
     7e9:	89 c0                	mov    %eax,%eax
     7eb:	48 89 45 f8          	mov    %rax,-0x8(%rbp)
     7ef:	eb 56                	jmp    847 <_ZN9Softfloat10soft_arithEhhmmm+0x71f>
     7f1:	48 8b 45 e8          	mov    -0x18(%rbp),%rax
     7f5:	48 8b 55 d8          	mov    -0x28(%rbp),%rdx
     7f9:	89 d7                	mov    %edx,%edi
     7fb:	48 89 c1             	mov    %rax,%rcx
     7fe:	ba 00 00 00 00       	mov    $0x0,%edx
     803:	be 00 00 00 00       	mov    $0x0,%esi
     808:	e8 00 00 00 00       	call   80d <_ZN9Softfloat10soft_arithEhhmmm+0x6e5>
     80d:	89 c0                	mov    %eax,%eax
     80f:	48 89 45 f8          	mov    %rax,-0x8(%rbp)
     813:	eb 32                	jmp    847 <_ZN9Softfloat10soft_arithEhhmmm+0x71f>
     815:	48 8b 45 d0          	mov    -0x30(%rbp),%rax
     819:	89 c2                	mov    %eax,%edx
     81b:	48 8b 45 d8          	mov    -0x28(%rbp),%rax
     81f:	89 d6                	mov    %edx,%esi
     821:	89 c7                	mov    %eax,%edi
     823:	e8 00 00 00 00       	call   828 <_ZN9Softfloat10soft_arithEhhmmm+0x700>
     828:	89 c0                	mov    %eax,%eax
     82a:	48 89 45 f8          	mov    %rax,-0x8(%rbp)
     82e:	eb 17                	jmp    847 <_ZN9Softfloat10soft_arithEhhmmm+0x71f>
     830:	48 8b 45 d8          	mov    -0x28(%rbp),%rax
     834:	89 c7                	mov    %eax,%edi
     836:	e8 00 00 00 00       	call   83b <_ZN9Softfloat10soft_arithEhhmmm+0x713>
     83b:	89 c0                	mov    %eax,%eax
     83d:	48 89 45 f8          	mov    %rax,-0x8(%rbp)
     841:	eb 04                	jmp    847 <_ZN9Softfloat10soft_arithEhhmmm+0x71f>
     843:	90                   	nop
     844:	eb 01                	jmp    847 <_ZN9Softfloat10soft_arithEhhmmm+0x71f>
     846:	90                   	nop
     847:	48 8b 45 f8          	mov    -0x8(%rbp),%rax
     84b:	c9                   	leave  
     84c:	c3                   	ret    
     84d:	90                   	nop

000000000000084e <_ZN9Softfloat8soft_cmpEhhmmm>:
_ZN9Softfloat8soft_cmpEhhmmm():
     84e:	f3 0f 1e fa          	endbr64 
     852:	55                   	push   %rbp
     853:	48 89 e5             	mov    %rsp,%rbp
     856:	48 83 ec 40          	sub    $0x40,%rsp
     85a:	48 89 7d e8          	mov    %rdi,-0x18(%rbp)
     85e:	89 d0                	mov    %edx,%eax
     860:	48 89 4d d8          	mov    %rcx,-0x28(%rbp)
     864:	4c 89 45 d0          	mov    %r8,-0x30(%rbp)
     868:	4c 89 4d c8          	mov    %r9,-0x38(%rbp)
     86c:	89 f2                	mov    %esi,%edx
     86e:	88 55 e4             	mov    %dl,-0x1c(%rbp)
     871:	88 45 e0             	mov    %al,-0x20(%rbp)
     874:	0f b6 45 e0          	movzbl -0x20(%rbp),%eax
     878:	83 e0 02             	and    $0x2,%eax
     87b:	85 c0                	test   %eax,%eax
     87d:	74 1d                	je     89c <_ZN9Softfloat8soft_cmpEhhmmm+0x4e>
     87f:	48 8b 4d e8          	mov    -0x18(%rbp),%rcx
     883:	0f b6 55 e4          	movzbl -0x1c(%rbp),%edx
     887:	48 8b 75 d0          	mov    -0x30(%rbp),%rsi
     88b:	48 8b 45 d8          	mov    -0x28(%rbp),%rax
     88f:	48 89 c7             	mov    %rax,%rdi
     892:	e8 00 00 00 00       	call   897 <_ZN9Softfloat8soft_cmpEhhmmm+0x49>
     897:	88 45 ff             	mov    %al,-0x1(%rbp)
     89a:	eb 21                	jmp    8bd <_ZN9Softfloat8soft_cmpEhhmmm+0x6f>
     89c:	48 8b 55 e8          	mov    -0x18(%rbp),%rdx
     8a0:	0f b6 45 e4          	movzbl -0x1c(%rbp),%eax
     8a4:	48 8b 4d d0          	mov    -0x30(%rbp),%rcx
     8a8:	89 ce                	mov    %ecx,%esi
     8aa:	48 8b 4d d8          	mov    -0x28(%rbp),%rcx
     8ae:	89 cf                	mov    %ecx,%edi
     8b0:	48 89 d1             	mov    %rdx,%rcx
     8b3:	89 c2                	mov    %eax,%edx
     8b5:	e8 00 00 00 00       	call   8ba <_ZN9Softfloat8soft_cmpEhhmmm+0x6c>
     8ba:	88 45 ff             	mov    %al,-0x1(%rbp)
     8bd:	0f b6 45 ff          	movzbl -0x1(%rbp),%eax
     8c1:	c9                   	leave  
     8c2:	c3                   	ret    
     8c3:	90                   	nop

00000000000008c4 <_ZN9Softfloat8soft_cvtEhhmmm>:
_ZN9Softfloat8soft_cvtEhhmmm():
     8c4:	f3 0f 1e fa          	endbr64 
     8c8:	55                   	push   %rbp
     8c9:	48 89 e5             	mov    %rsp,%rbp
     8cc:	48 83 ec 40          	sub    $0x40,%rsp
     8d0:	48 89 7d e8          	mov    %rdi,-0x18(%rbp)
     8d4:	89 d0                	mov    %edx,%eax
     8d6:	48 89 4d d8          	mov    %rcx,-0x28(%rbp)
     8da:	4c 89 45 d0          	mov    %r8,-0x30(%rbp)
     8de:	4c 89 4d c8          	mov    %r9,-0x38(%rbp)
     8e2:	89 f2                	mov    %esi,%edx
     8e4:	88 55 e4             	mov    %dl,-0x1c(%rbp)
     8e7:	88 45 e0             	mov    %al,-0x20(%rbp)
     8ea:	0f b6 45 e4          	movzbl -0x1c(%rbp),%eax
     8ee:	83 f8 03             	cmp    $0x3,%eax
     8f1:	0f 84 9c 01 00 00    	je     a93 <_ZN9Softfloat8soft_cvtEhhmmm+0x1cf>
     8f7:	83 f8 03             	cmp    $0x3,%eax
     8fa:	0f 8f e5 01 00 00    	jg     ae5 <_ZN9Softfloat8soft_cvtEhhmmm+0x221>
     900:	83 f8 02             	cmp    $0x2,%eax
     903:	0f 84 fe 00 00 00    	je     a07 <_ZN9Softfloat8soft_cvtEhhmmm+0x143>
     909:	83 f8 02             	cmp    $0x2,%eax
     90c:	0f 8f d3 01 00 00    	jg     ae5 <_ZN9Softfloat8soft_cvtEhhmmm+0x221>
     912:	85 c0                	test   %eax,%eax
     914:	74 0a                	je     920 <_ZN9Softfloat8soft_cvtEhhmmm+0x5c>
     916:	83 f8 01             	cmp    $0x1,%eax
     919:	74 5d                	je     978 <_ZN9Softfloat8soft_cvtEhhmmm+0xb4>
     91b:	e9 c5 01 00 00       	jmp    ae5 <_ZN9Softfloat8soft_cvtEhhmmm+0x221>
     920:	0f b6 45 e0          	movzbl -0x20(%rbp),%eax
     924:	83 e0 02             	and    $0x2,%eax
     927:	85 c0                	test   %eax,%eax
     929:	74 28                	je     953 <_ZN9Softfloat8soft_cvtEhhmmm+0x8f>
     92b:	48 8b 55 e8          	mov    -0x18(%rbp),%rdx
     92f:	48 8b 45 d8          	mov    -0x28(%rbp),%rax
     933:	48 89 d1             	mov    %rdx,%rcx
     936:	ba 00 00 00 00       	mov    $0x0,%edx
     93b:	be 00 00 00 00       	mov    $0x0,%esi
     940:	48 89 c7             	mov    %rax,%rdi
     943:	e8 00 00 00 00       	call   948 <_ZN9Softfloat8soft_cvtEhhmmm+0x84>
     948:	89 c0                	mov    %eax,%eax
     94a:	48 89 45 f8          	mov    %rax,-0x8(%rbp)
     94e:	e9 93 01 00 00       	jmp    ae6 <_ZN9Softfloat8soft_cvtEhhmmm+0x222>
     953:	48 8b 45 e8          	mov    -0x18(%rbp),%rax
     957:	48 8b 55 d8          	mov    -0x28(%rbp),%rdx
     95b:	89 d7                	mov    %edx,%edi
     95d:	48 89 c1             	mov    %rax,%rcx
     960:	ba 00 00 00 00       	mov    $0x0,%edx
     965:	be 00 00 00 00       	mov    $0x0,%esi
     96a:	e8 00 00 00 00       	call   96f <_ZN9Softfloat8soft_cvtEhhmmm+0xab>
     96f:	48 89 45 f8          	mov    %rax,-0x8(%rbp)
     973:	e9 6e 01 00 00       	jmp    ae6 <_ZN9Softfloat8soft_cvtEhhmmm+0x222>
     978:	0f b6 45 e0          	movzbl -0x20(%rbp),%eax
     97c:	83 f8 03             	cmp    $0x3,%eax
     97f:	74 1a                	je     99b <_ZN9Softfloat8soft_cvtEhhmmm+0xd7>
     981:	83 f8 03             	cmp    $0x3,%eax
     984:	7f 7b                	jg     a01 <_ZN9Softfloat8soft_cvtEhhmmm+0x13d>
     986:	83 f8 02             	cmp    $0x2,%eax
     989:	74 29                	je     9b4 <_ZN9Softfloat8soft_cvtEhhmmm+0xf0>
     98b:	83 f8 02             	cmp    $0x2,%eax
     98e:	7f 71                	jg     a01 <_ZN9Softfloat8soft_cvtEhhmmm+0x13d>
     990:	85 c0                	test   %eax,%eax
     992:	74 53                	je     9e7 <_ZN9Softfloat8soft_cvtEhhmmm+0x123>
     994:	83 f8 01             	cmp    $0x1,%eax
     997:	74 33                	je     9cc <_ZN9Softfloat8soft_cvtEhhmmm+0x108>
     999:	eb 66                	jmp    a01 <_ZN9Softfloat8soft_cvtEhhmmm+0x13d>
     99b:	48 8b 55 e8          	mov    -0x18(%rbp),%rdx
     99f:	48 8b 45 d8          	mov    -0x28(%rbp),%rax
     9a3:	48 89 d6             	mov    %rdx,%rsi
     9a6:	48 89 c7             	mov    %rax,%rdi
     9a9:	e8 00 00 00 00       	call   9ae <_ZN9Softfloat8soft_cvtEhhmmm+0xea>
     9ae:	48 89 45 f8          	mov    %rax,-0x8(%rbp)
     9b2:	eb 4e                	jmp    a02 <_ZN9Softfloat8soft_cvtEhhmmm+0x13e>
     9b4:	48 8b 45 e8          	mov    -0x18(%rbp),%rax
     9b8:	48 8b 55 d8          	mov    -0x28(%rbp),%rdx
     9bc:	48 89 c6             	mov    %rax,%rsi
     9bf:	89 d7                	mov    %edx,%edi
     9c1:	e8 00 00 00 00       	call   9c6 <_ZN9Softfloat8soft_cvtEhhmmm+0x102>
     9c6:	48 89 45 f8          	mov    %rax,-0x8(%rbp)
     9ca:	eb 36                	jmp    a02 <_ZN9Softfloat8soft_cvtEhhmmm+0x13e>
     9cc:	48 8b 55 e8          	mov    -0x18(%rbp),%rdx
     9d0:	48 8b 45 d8          	mov    -0x28(%rbp),%rax
     9d4:	48 89 d6             	mov    %rdx,%rsi
     9d7:	48 89 c7             	mov    %rax,%rdi
     9da:	e8 00 00 00 00       	call   9df <_ZN9Softfloat8soft_cvtEhhmmm+0x11b>
     9df:	89 c0                	mov    %eax,%eax
     9e1:	48 89 45 f8          	mov    %rax,-0x8(%rbp)
     9e5:	eb 1b                	jmp    a02 <_ZN9Softfloat8soft_cvtEhhmmm+0x13e>
     9e7:	48 8b 45 e8          	mov    -0x18(%rbp),%rax
     9eb:	48 8b 55 d8          	mov    -0x28(%rbp),%rdx
     9ef:	48 89 c6             	mov    %rax,%rsi
     9f2:	89 d7                	mov    %edx,%edi
     9f4:	e8 00 00 00 00       	call   9f9 <_ZN9Softfloat8soft_cvtEhhmmm+0x135>
     9f9:	89 c0                	mov    %eax,%eax
     9fb:	48 89 45 f8          	mov    %rax,-0x8(%rbp)
     9ff:	eb 01                	jmp    a02 <_ZN9Softfloat8soft_cvtEhhmmm+0x13e>
     a01:	90                   	nop
     a02:	e9 df 00 00 00       	jmp    ae6 <_ZN9Softfloat8soft_cvtEhhmmm+0x222>
     a07:	0f b6 45 e0          	movzbl -0x20(%rbp),%eax
     a0b:	83 f8 03             	cmp    $0x3,%eax
     a0e:	74 1a                	je     a2a <_ZN9Softfloat8soft_cvtEhhmmm+0x166>
     a10:	83 f8 03             	cmp    $0x3,%eax
     a13:	7f 7b                	jg     a90 <_ZN9Softfloat8soft_cvtEhhmmm+0x1cc>
     a15:	83 f8 02             	cmp    $0x2,%eax
     a18:	74 29                	je     a43 <_ZN9Softfloat8soft_cvtEhhmmm+0x17f>
     a1a:	83 f8 02             	cmp    $0x2,%eax
     a1d:	7f 71                	jg     a90 <_ZN9Softfloat8soft_cvtEhhmmm+0x1cc>
     a1f:	85 c0                	test   %eax,%eax
     a21:	74 53                	je     a76 <_ZN9Softfloat8soft_cvtEhhmmm+0x1b2>
     a23:	83 f8 01             	cmp    $0x1,%eax
     a26:	74 36                	je     a5e <_ZN9Softfloat8soft_cvtEhhmmm+0x19a>
     a28:	eb 66                	jmp    a90 <_ZN9Softfloat8soft_cvtEhhmmm+0x1cc>
     a2a:	48 8b 55 e8          	mov    -0x18(%rbp),%rdx
     a2e:	48 8b 45 d8          	mov    -0x28(%rbp),%rax
     a32:	48 89 d6             	mov    %rdx,%rsi
     a35:	48 89 c7             	mov    %rax,%rdi
     a38:	e8 00 00 00 00       	call   a3d <_ZN9Softfloat8soft_cvtEhhmmm+0x179>
     a3d:	48 89 45 f8          	mov    %rax,-0x8(%rbp)
     a41:	eb 4e                	jmp    a91 <_ZN9Softfloat8soft_cvtEhhmmm+0x1cd>
     a43:	48 8b 55 e8          	mov    -0x18(%rbp),%rdx
     a47:	48 8b 45 d8          	mov    -0x28(%rbp),%rax
     a4b:	48 89 d6             	mov    %rdx,%rsi
     a4e:	48 89 c7             	mov    %rax,%rdi
     a51:	e8 00 00 00 00       	call   a56 <_ZN9Softfloat8soft_cvtEhhmmm+0x192>
     a56:	89 c0                	mov    %eax,%eax
     a58:	48 89 45 f8          	mov    %rax,-0x8(%rbp)
     a5c:	eb 33                	jmp    a91 <_ZN9Softfloat8soft_cvtEhhmmm+0x1cd>
     a5e:	48 8b 45 e8          	mov    -0x18(%rbp),%rax
     a62:	48 8b 55 d8          	mov    -0x28(%rbp),%rdx
     a66:	48 89 c6             	mov    %rax,%rsi
     a69:	89 d7                	mov    %edx,%edi
     a6b:	e8 00 00 00 00       	call   a70 <_ZN9Softfloat8soft_cvtEhhmmm+0x1ac>
     a70:	48 89 45 f8          	mov    %rax,-0x8(%rbp)
     a74:	eb 1b                	jmp    a91 <_ZN9Softfloat8soft_cvtEhhmmm+0x1cd>
     a76:	48 8b 45 e8          	mov    -0x18(%rbp),%rax
     a7a:	48 8b 55 d8          	mov    -0x28(%rbp),%rdx
     a7e:	48 89 c6             	mov    %rax,%rsi
     a81:	89 d7                	mov    %edx,%edi
     a83:	e8 00 00 00 00       	call   a88 <_ZN9Softfloat8soft_cvtEhhmmm+0x1c4>
     a88:	89 c0                	mov    %eax,%eax
     a8a:	48 89 45 f8          	mov    %rax,-0x8(%rbp)
     a8e:	eb 01                	jmp    a91 <_ZN9Softfloat8soft_cvtEhhmmm+0x1cd>
     a90:	90                   	nop
     a91:	eb 53                	jmp    ae6 <_ZN9Softfloat8soft_cvtEhhmmm+0x222>
     a93:	0f b6 45 e0          	movzbl -0x20(%rbp),%eax
     a97:	83 e0 02             	and    $0x2,%eax
     a9a:	85 c0                	test   %eax,%eax
     a9c:	74 23                	je     ac1 <_ZN9Softfloat8soft_cvtEhhmmm+0x1fd>
     a9e:	48 8b 55 e8          	mov    -0x18(%rbp),%rdx
     aa2:	48 8b 45 d8          	mov    -0x28(%rbp),%rax
     aa6:	48 89 d1             	mov    %rdx,%rcx
     aa9:	ba 00 00 00 00       	mov    $0x0,%edx
     aae:	be 00 00 00 00       	mov    $0x0,%esi
     ab3:	48 89 c7             	mov    %rax,%rdi
     ab6:	e8 00 00 00 00       	call   abb <_ZN9Softfloat8soft_cvtEhhmmm+0x1f7>
     abb:	48 89 45 f8          	mov    %rax,-0x8(%rbp)
     abf:	eb 25                	jmp    ae6 <_ZN9Softfloat8soft_cvtEhhmmm+0x222>
     ac1:	48 8b 45 e8          	mov    -0x18(%rbp),%rax
     ac5:	48 8b 55 d8          	mov    -0x28(%rbp),%rdx
     ac9:	89 d7                	mov    %edx,%edi
     acb:	48 89 c1             	mov    %rax,%rcx
     ace:	ba 00 00 00 00       	mov    $0x0,%edx
     ad3:	be 00 00 00 00       	mov    $0x0,%esi
     ad8:	e8 00 00 00 00       	call   add <_ZN9Softfloat8soft_cvtEhhmmm+0x219>
     add:	89 c0                	mov    %eax,%eax
     adf:	48 89 45 f8          	mov    %rax,-0x8(%rbp)
     ae3:	eb 01                	jmp    ae6 <_ZN9Softfloat8soft_cvtEhhmmm+0x222>
     ae5:	90                   	nop
     ae6:	48 8b 45 f8          	mov    -0x8(%rbp),%rax
     aea:	c9                   	leave  
     aeb:	c3                   	ret    

0000000000000aec <fmin32>:
fmin32():
/export/lustre-2/verify/work/hjm/RTPG/RTG/rpg_source/src/fplib/gs_fplib.cpp:15
     aec:	55                   	push   %rbp
     aed:	48 89 e5             	mov    %rsp,%rbp
     af0:	48 83 ec 30          	sub    $0x30,%rsp
     af4:	89 7d ec             	mov    %edi,-0x14(%rbp)
     af7:	89 75 e8             	mov    %esi,-0x18(%rbp)
     afa:	89 c8                	mov    %ecx,%eax
     afc:	4c 89 45 d8          	mov    %r8,-0x28(%rbp)
     b00:	88 55 e4             	mov    %dl,-0x1c(%rbp)
     b03:	88 45 e0             	mov    %al,-0x20(%rbp)
/export/lustre-2/verify/work/hjm/RTPG/RTG/rpg_source/src/fplib/gs_fplib.cpp:17
     b06:	48 8d 55 fb          	lea    -0x5(%rbp),%rdx
     b0a:	8b 4d e8             	mov    -0x18(%rbp),%ecx
     b0d:	8b 45 ec             	mov    -0x14(%rbp),%eax
     b10:	89 ce                	mov    %ecx,%esi
     b12:	89 c7                	mov    %eax,%edi
     b14:	e8 00 00 00 00       	call   b19 <fmin32+0x2d>
     b19:	89 45 fc             	mov    %eax,-0x4(%rbp)
/export/lustre-2/verify/work/hjm/RTPG/RTG/rpg_source/src/fplib/gs_fplib.cpp:21
     b1c:	48 8b 45 d8          	mov    -0x28(%rbp),%rax
     b20:	c6 00 00             	movb   $0x0,(%rax)
/export/lustre-2/verify/work/hjm/RTPG/RTG/rpg_source/src/fplib/gs_fplib.cpp:22
     b23:	48 8b 45 d8          	mov    -0x28(%rbp),%rax
     b27:	0f b6 10             	movzbl (%rax),%edx
     b2a:	0f b6 45 fb          	movzbl -0x5(%rbp),%eax
     b2e:	09 c2                	or     %eax,%edx
     b30:	48 8b 45 d8          	mov    -0x28(%rbp),%rax
     b34:	88 10                	mov    %dl,(%rax)
/export/lustre-2/verify/work/hjm/RTPG/RTG/rpg_source/src/fplib/gs_fplib.cpp:24
     b36:	8b 45 fc             	mov    -0x4(%rbp),%eax
/export/lustre-2/verify/work/hjm/RTPG/RTG/rpg_source/src/fplib/gs_fplib.cpp:25
     b39:	c9                   	leave  
     b3a:	c3                   	ret    

0000000000000b3b <fmin_abs32>:
fmin_abs32():
/export/lustre-2/verify/work/hjm/RTPG/RTG/rpg_source/src/fplib/gs_fplib.cpp:28
     b3b:	55                   	push   %rbp
     b3c:	48 89 e5             	mov    %rsp,%rbp
     b3f:	48 83 ec 30          	sub    $0x30,%rsp
     b43:	89 7d ec             	mov    %edi,-0x14(%rbp)
     b46:	89 75 e8             	mov    %esi,-0x18(%rbp)
     b49:	89 c8                	mov    %ecx,%eax
     b4b:	4c 89 45 d8          	mov    %r8,-0x28(%rbp)
     b4f:	88 55 e4             	mov    %dl,-0x1c(%rbp)
     b52:	88 45 e0             	mov    %al,-0x20(%rbp)
/export/lustre-2/verify/work/hjm/RTPG/RTG/rpg_source/src/fplib/gs_fplib.cpp:30
     b55:	48 8d 55 fb          	lea    -0x5(%rbp),%rdx
     b59:	8b 4d e8             	mov    -0x18(%rbp),%ecx
     b5c:	8b 45 ec             	mov    -0x14(%rbp),%eax
     b5f:	89 ce                	mov    %ecx,%esi
     b61:	89 c7                	mov    %eax,%edi
     b63:	e8 00 00 00 00       	call   b68 <fmin_abs32+0x2d>
     b68:	89 45 fc             	mov    %eax,-0x4(%rbp)
/export/lustre-2/verify/work/hjm/RTPG/RTG/rpg_source/src/fplib/gs_fplib.cpp:34
     b6b:	48 8b 45 d8          	mov    -0x28(%rbp),%rax
     b6f:	c6 00 00             	movb   $0x0,(%rax)
/export/lustre-2/verify/work/hjm/RTPG/RTG/rpg_source/src/fplib/gs_fplib.cpp:35
     b72:	48 8b 45 d8          	mov    -0x28(%rbp),%rax
     b76:	0f b6 10             	movzbl (%rax),%edx
     b79:	0f b6 45 fb          	movzbl -0x5(%rbp),%eax
     b7d:	09 c2                	or     %eax,%edx
     b7f:	48 8b 45 d8          	mov    -0x28(%rbp),%rax
     b83:	88 10                	mov    %dl,(%rax)
/export/lustre-2/verify/work/hjm/RTPG/RTG/rpg_source/src/fplib/gs_fplib.cpp:37
     b85:	8b 45 fc             	mov    -0x4(%rbp),%eax
/export/lustre-2/verify/work/hjm/RTPG/RTG/rpg_source/src/fplib/gs_fplib.cpp:38
     b88:	c9                   	leave  
     b89:	c3                   	ret    

0000000000000b8a <fmin_abs64>:
fmin_abs64():
/export/lustre-2/verify/work/hjm/RTPG/RTG/rpg_source/src/fplib/gs_fplib.cpp:41
     b8a:	55                   	push   %rbp
     b8b:	48 89 e5             	mov    %rsp,%rbp
     b8e:	48 83 ec 30          	sub    $0x30,%rsp
     b92:	48 89 7d e8          	mov    %rdi,-0x18(%rbp)
     b96:	48 89 75 e0          	mov    %rsi,-0x20(%rbp)
     b9a:	89 c8                	mov    %ecx,%eax
     b9c:	4c 89 45 d0          	mov    %r8,-0x30(%rbp)
     ba0:	88 55 dc             	mov    %dl,-0x24(%rbp)
     ba3:	88 45 d8             	mov    %al,-0x28(%rbp)
/export/lustre-2/verify/work/hjm/RTPG/RTG/rpg_source/src/fplib/gs_fplib.cpp:43
     ba6:	48 8d 55 f7          	lea    -0x9(%rbp),%rdx
     baa:	48 8b 4d e0          	mov    -0x20(%rbp),%rcx
     bae:	48 8b 45 e8          	mov    -0x18(%rbp),%rax
     bb2:	48 89 ce             	mov    %rcx,%rsi
     bb5:	48 89 c7             	mov    %rax,%rdi
     bb8:	e8 00 00 00 00       	call   bbd <fmin_abs64+0x33>
     bbd:	48 89 45 f8          	mov    %rax,-0x8(%rbp)
/export/lustre-2/verify/work/hjm/RTPG/RTG/rpg_source/src/fplib/gs_fplib.cpp:45
     bc1:	48 8b 45 d0          	mov    -0x30(%rbp),%rax
     bc5:	c6 00 00             	movb   $0x0,(%rax)
/export/lustre-2/verify/work/hjm/RTPG/RTG/rpg_source/src/fplib/gs_fplib.cpp:46
     bc8:	48 8b 45 d0          	mov    -0x30(%rbp),%rax
     bcc:	0f b6 10             	movzbl (%rax),%edx
     bcf:	0f b6 45 f7          	movzbl -0x9(%rbp),%eax
     bd3:	09 c2                	or     %eax,%edx
     bd5:	48 8b 45 d0          	mov    -0x30(%rbp),%rax
     bd9:	88 10                	mov    %dl,(%rax)
/export/lustre-2/verify/work/hjm/RTPG/RTG/rpg_source/src/fplib/gs_fplib.cpp:50
     bdb:	48 8b 45 f8          	mov    -0x8(%rbp),%rax
/export/lustre-2/verify/work/hjm/RTPG/RTG/rpg_source/src/fplib/gs_fplib.cpp:51
     bdf:	c9                   	leave  
     be0:	c3                   	ret    

0000000000000be1 <fmin64>:
fmin64():
/export/lustre-2/verify/work/hjm/RTPG/RTG/rpg_source/src/fplib/gs_fplib.cpp:54
     be1:	55                   	push   %rbp
     be2:	48 89 e5             	mov    %rsp,%rbp
     be5:	48 83 ec 30          	sub    $0x30,%rsp
     be9:	48 89 7d e8          	mov    %rdi,-0x18(%rbp)
     bed:	48 89 75 e0          	mov    %rsi,-0x20(%rbp)
     bf1:	89 c8                	mov    %ecx,%eax
     bf3:	4c 89 45 d0          	mov    %r8,-0x30(%rbp)
     bf7:	88 55 dc             	mov    %dl,-0x24(%rbp)
     bfa:	88 45 d8             	mov    %al,-0x28(%rbp)
/export/lustre-2/verify/work/hjm/RTPG/RTG/rpg_source/src/fplib/gs_fplib.cpp:56
     bfd:	48 8d 55 f7          	lea    -0x9(%rbp),%rdx
     c01:	48 8b 4d e0          	mov    -0x20(%rbp),%rcx
     c05:	48 8b 45 e8          	mov    -0x18(%rbp),%rax
     c09:	48 89 ce             	mov    %rcx,%rsi
     c0c:	48 89 c7             	mov    %rax,%rdi
     c0f:	e8 00 00 00 00       	call   c14 <fmin64+0x33>
     c14:	48 89 45 f8          	mov    %rax,-0x8(%rbp)
/export/lustre-2/verify/work/hjm/RTPG/RTG/rpg_source/src/fplib/gs_fplib.cpp:60
     c18:	48 8b 45 d0          	mov    -0x30(%rbp),%rax
     c1c:	c6 00 00             	movb   $0x0,(%rax)
/export/lustre-2/verify/work/hjm/RTPG/RTG/rpg_source/src/fplib/gs_fplib.cpp:61
     c1f:	48 8b 45 d0          	mov    -0x30(%rbp),%rax
     c23:	0f b6 10             	movzbl (%rax),%edx
     c26:	0f b6 45 f7          	movzbl -0x9(%rbp),%eax
     c2a:	09 c2                	or     %eax,%edx
     c2c:	48 8b 45 d0          	mov    -0x30(%rbp),%rax
     c30:	88 10                	mov    %dl,(%rax)
/export/lustre-2/verify/work/hjm/RTPG/RTG/rpg_source/src/fplib/gs_fplib.cpp:63
     c32:	48 8b 45 f8          	mov    -0x8(%rbp),%rax
/export/lustre-2/verify/work/hjm/RTPG/RTG/rpg_source/src/fplib/gs_fplib.cpp:64
     c36:	c9                   	leave  
     c37:	c3                   	ret    

0000000000000c38 <fmax_abs32>:
fmax_abs32():
/export/lustre-2/verify/work/hjm/RTPG/RTG/rpg_source/src/fplib/gs_fplib.cpp:67
     c38:	55                   	push   %rbp
     c39:	48 89 e5             	mov    %rsp,%rbp
     c3c:	48 83 ec 30          	sub    $0x30,%rsp
     c40:	89 7d ec             	mov    %edi,-0x14(%rbp)
     c43:	89 75 e8             	mov    %esi,-0x18(%rbp)
     c46:	89 c8                	mov    %ecx,%eax
     c48:	4c 89 45 d8          	mov    %r8,-0x28(%rbp)
     c4c:	88 55 e4             	mov    %dl,-0x1c(%rbp)
     c4f:	88 45 e0             	mov    %al,-0x20(%rbp)
/export/lustre-2/verify/work/hjm/RTPG/RTG/rpg_source/src/fplib/gs_fplib.cpp:69
     c52:	48 8d 55 fb          	lea    -0x5(%rbp),%rdx
     c56:	8b 4d e8             	mov    -0x18(%rbp),%ecx
     c59:	8b 45 ec             	mov    -0x14(%rbp),%eax
     c5c:	89 ce                	mov    %ecx,%esi
     c5e:	89 c7                	mov    %eax,%edi
     c60:	e8 00 00 00 00       	call   c65 <fmax_abs32+0x2d>
     c65:	89 45 fc             	mov    %eax,-0x4(%rbp)
/export/lustre-2/verify/work/hjm/RTPG/RTG/rpg_source/src/fplib/gs_fplib.cpp:73
     c68:	48 8b 45 d8          	mov    -0x28(%rbp),%rax
     c6c:	c6 00 00             	movb   $0x0,(%rax)
/export/lustre-2/verify/work/hjm/RTPG/RTG/rpg_source/src/fplib/gs_fplib.cpp:74
     c6f:	48 8b 45 d8          	mov    -0x28(%rbp),%rax
     c73:	0f b6 10             	movzbl (%rax),%edx
     c76:	0f b6 45 fb          	movzbl -0x5(%rbp),%eax
     c7a:	09 c2                	or     %eax,%edx
     c7c:	48 8b 45 d8          	mov    -0x28(%rbp),%rax
     c80:	88 10                	mov    %dl,(%rax)
/export/lustre-2/verify/work/hjm/RTPG/RTG/rpg_source/src/fplib/gs_fplib.cpp:76
     c82:	8b 45 fc             	mov    -0x4(%rbp),%eax
/export/lustre-2/verify/work/hjm/RTPG/RTG/rpg_source/src/fplib/gs_fplib.cpp:77
     c85:	c9                   	leave  
     c86:	c3                   	ret    

0000000000000c87 <fmax_abs64>:
fmax_abs64():
/export/lustre-2/verify/work/hjm/RTPG/RTG/rpg_source/src/fplib/gs_fplib.cpp:80
     c87:	55                   	push   %rbp
     c88:	48 89 e5             	mov    %rsp,%rbp
     c8b:	48 83 ec 30          	sub    $0x30,%rsp
     c8f:	48 89 7d e8          	mov    %rdi,-0x18(%rbp)
     c93:	48 89 75 e0          	mov    %rsi,-0x20(%rbp)
     c97:	89 c8                	mov    %ecx,%eax
     c99:	4c 89 45 d0          	mov    %r8,-0x30(%rbp)
     c9d:	88 55 dc             	mov    %dl,-0x24(%rbp)
     ca0:	88 45 d8             	mov    %al,-0x28(%rbp)
/export/lustre-2/verify/work/hjm/RTPG/RTG/rpg_source/src/fplib/gs_fplib.cpp:82
     ca3:	48 8d 55 f7          	lea    -0x9(%rbp),%rdx
     ca7:	48 8b 4d e0          	mov    -0x20(%rbp),%rcx
     cab:	48 8b 45 e8          	mov    -0x18(%rbp),%rax
     caf:	48 89 ce             	mov    %rcx,%rsi
     cb2:	48 89 c7             	mov    %rax,%rdi
     cb5:	e8 00 00 00 00       	call   cba <fmax_abs64+0x33>
     cba:	48 89 45 f8          	mov    %rax,-0x8(%rbp)
/export/lustre-2/verify/work/hjm/RTPG/RTG/rpg_source/src/fplib/gs_fplib.cpp:86
     cbe:	48 8b 45 d0          	mov    -0x30(%rbp),%rax
     cc2:	c6 00 00             	movb   $0x0,(%rax)
/export/lustre-2/verify/work/hjm/RTPG/RTG/rpg_source/src/fplib/gs_fplib.cpp:87
     cc5:	48 8b 45 d0          	mov    -0x30(%rbp),%rax
     cc9:	0f b6 10             	movzbl (%rax),%edx
     ccc:	0f b6 45 f7          	movzbl -0x9(%rbp),%eax
     cd0:	09 c2                	or     %eax,%edx
     cd2:	48 8b 45 d0          	mov    -0x30(%rbp),%rax
     cd6:	88 10                	mov    %dl,(%rax)
/export/lustre-2/verify/work/hjm/RTPG/RTG/rpg_source/src/fplib/gs_fplib.cpp:89
     cd8:	48 8b 45 f8          	mov    -0x8(%rbp),%rax
/export/lustre-2/verify/work/hjm/RTPG/RTG/rpg_source/src/fplib/gs_fplib.cpp:90
     cdc:	c9                   	leave  
     cdd:	c3                   	ret    

0000000000000cde <vfcvt_fp32_to_fp64>:
vfcvt_fp32_to_fp64():
/export/lustre-2/verify/work/hjm/RTPG/RTG/rpg_source/src/fplib/gs_fplib.cpp:93
     cde:	55                   	push   %rbp
     cdf:	48 89 e5             	mov    %rsp,%rbp
     ce2:	48 83 ec 30          	sub    $0x30,%rsp
     ce6:	89 7d ec             	mov    %edi,-0x14(%rbp)
     ce9:	89 d0                	mov    %edx,%eax
     ceb:	48 89 4d d8          	mov    %rcx,-0x28(%rbp)
     cef:	44 89 c2             	mov    %r8d,%edx
     cf2:	40 88 75 e8          	mov    %sil,-0x18(%rbp)
     cf6:	88 45 e4             	mov    %al,-0x1c(%rbp)
     cf9:	88 55 e0             	mov    %dl,-0x20(%rbp)
/export/lustre-2/verify/work/hjm/RTPG/RTG/rpg_source/src/fplib/gs_fplib.cpp:94
     cfc:	0f b6 45 e0          	movzbl -0x20(%rbp),%eax
     d00:	89 c7                	mov    %eax,%edi
     d02:	e8 00 00 00 00       	call   d07 <vfcvt_fp32_to_fp64+0x29>
/export/lustre-2/verify/work/hjm/RTPG/RTG/rpg_source/src/fplib/gs_fplib.cpp:96
     d07:	48 8d 55 f7          	lea    -0x9(%rbp),%rdx
     d0b:	8b 45 ec             	mov    -0x14(%rbp),%eax
     d0e:	48 89 d6             	mov    %rdx,%rsi
     d11:	89 c7                	mov    %eax,%edi
     d13:	e8 00 00 00 00       	call   d18 <vfcvt_fp32_to_fp64+0x3a>
     d18:	48 89 45 f8          	mov    %rax,-0x8(%rbp)
/export/lustre-2/verify/work/hjm/RTPG/RTG/rpg_source/src/fplib/gs_fplib.cpp:100
     d1c:	48 8b 45 d8          	mov    -0x28(%rbp),%rax
     d20:	c6 00 00             	movb   $0x0,(%rax)
/export/lustre-2/verify/work/hjm/RTPG/RTG/rpg_source/src/fplib/gs_fplib.cpp:101
     d23:	48 8b 45 d8          	mov    -0x28(%rbp),%rax
     d27:	0f b6 10             	movzbl (%rax),%edx
     d2a:	0f b6 45 f7          	movzbl -0x9(%rbp),%eax
     d2e:	09 c2                	or     %eax,%edx
     d30:	48 8b 45 d8          	mov    -0x28(%rbp),%rax
     d34:	88 10                	mov    %dl,(%rax)
/export/lustre-2/verify/work/hjm/RTPG/RTG/rpg_source/src/fplib/gs_fplib.cpp:103
     d36:	48 8b 45 f8          	mov    -0x8(%rbp),%rax
/export/lustre-2/verify/work/hjm/RTPG/RTG/rpg_source/src/fplib/gs_fplib.cpp:104
     d3a:	c9                   	leave  
     d3b:	c3                   	ret    

0000000000000d3c <vfrsqrt32>:
vfrsqrt32():
/export/lustre-2/verify/work/hjm/RTPG/RTG/rpg_source/src/fplib/gs_fplib.cpp:106
     d3c:	55                   	push   %rbp
     d3d:	48 89 e5             	mov    %rsp,%rbp
     d40:	48 83 ec 30          	sub    $0x30,%rsp
     d44:	89 7d ec             	mov    %edi,-0x14(%rbp)
     d47:	89 d0                	mov    %edx,%eax
     d49:	48 89 4d d8          	mov    %rcx,-0x28(%rbp)
     d4d:	44 89 c2             	mov    %r8d,%edx
     d50:	40 88 75 e8          	mov    %sil,-0x18(%rbp)
     d54:	88 45 e4             	mov    %al,-0x1c(%rbp)
     d57:	88 55 e0             	mov    %dl,-0x20(%rbp)
/export/lustre-2/verify/work/hjm/RTPG/RTG/rpg_source/src/fplib/gs_fplib.cpp:107
     d5a:	0f b6 45 e0          	movzbl -0x20(%rbp),%eax
     d5e:	89 c7                	mov    %eax,%edi
     d60:	e8 00 00 00 00       	call   d65 <vfrsqrt32+0x29>
/export/lustre-2/verify/work/hjm/RTPG/RTG/rpg_source/src/fplib/gs_fplib.cpp:109
     d65:	48 8d 55 fb          	lea    -0x5(%rbp),%rdx
     d69:	8b 45 ec             	mov    -0x14(%rbp),%eax
     d6c:	48 89 d6             	mov    %rdx,%rsi
     d6f:	89 c7                	mov    %eax,%edi
     d71:	e8 00 00 00 00       	call   d76 <vfrsqrt32+0x3a>
     d76:	89 45 fc             	mov    %eax,-0x4(%rbp)
/export/lustre-2/verify/work/hjm/RTPG/RTG/rpg_source/src/fplib/gs_fplib.cpp:113
     d79:	48 8b 45 d8          	mov    -0x28(%rbp),%rax
     d7d:	c6 00 00             	movb   $0x0,(%rax)
/export/lustre-2/verify/work/hjm/RTPG/RTG/rpg_source/src/fplib/gs_fplib.cpp:114
     d80:	48 8b 45 d8          	mov    -0x28(%rbp),%rax
     d84:	0f b6 10             	movzbl (%rax),%edx
     d87:	0f b6 45 fb          	movzbl -0x5(%rbp),%eax
     d8b:	09 c2                	or     %eax,%edx
     d8d:	48 8b 45 d8          	mov    -0x28(%rbp),%rax
     d91:	88 10                	mov    %dl,(%rax)
/export/lustre-2/verify/work/hjm/RTPG/RTG/rpg_source/src/fplib/gs_fplib.cpp:116
     d93:	8b 45 fc             	mov    -0x4(%rbp),%eax
/export/lustre-2/verify/work/hjm/RTPG/RTG/rpg_source/src/fplib/gs_fplib.cpp:117
     d96:	c9                   	leave  
     d97:	c3                   	ret    

0000000000000d98 <vfrsqrt64>:
vfrsqrt64():
/export/lustre-2/verify/work/hjm/RTPG/RTG/rpg_source/src/fplib/gs_fplib.cpp:120
     d98:	55                   	push   %rbp
     d99:	48 89 e5             	mov    %rsp,%rbp
     d9c:	48 83 ec 30          	sub    $0x30,%rsp
     da0:	48 89 7d e8          	mov    %rdi,-0x18(%rbp)
     da4:	89 d0                	mov    %edx,%eax
     da6:	48 89 4d d8          	mov    %rcx,-0x28(%rbp)
     daa:	44 89 c2             	mov    %r8d,%edx
     dad:	40 88 75 e4          	mov    %sil,-0x1c(%rbp)
     db1:	88 45 e0             	mov    %al,-0x20(%rbp)
     db4:	88 55 d4             	mov    %dl,-0x2c(%rbp)
/export/lustre-2/verify/work/hjm/RTPG/RTG/rpg_source/src/fplib/gs_fplib.cpp:121
     db7:	0f b6 45 d4          	movzbl -0x2c(%rbp),%eax
     dbb:	89 c7                	mov    %eax,%edi
     dbd:	e8 00 00 00 00       	call   dc2 <vfrsqrt64+0x2a>
/export/lustre-2/verify/work/hjm/RTPG/RTG/rpg_source/src/fplib/gs_fplib.cpp:123
     dc2:	48 8d 55 f7          	lea    -0x9(%rbp),%rdx
     dc6:	48 8b 45 e8          	mov    -0x18(%rbp),%rax
     dca:	48 89 d6             	mov    %rdx,%rsi
     dcd:	48 89 c7             	mov    %rax,%rdi
     dd0:	e8 00 00 00 00       	call   dd5 <vfrsqrt64+0x3d>
     dd5:	48 89 45 f8          	mov    %rax,-0x8(%rbp)
/export/lustre-2/verify/work/hjm/RTPG/RTG/rpg_source/src/fplib/gs_fplib.cpp:127
     dd9:	48 8b 45 d8          	mov    -0x28(%rbp),%rax
     ddd:	c6 00 00             	movb   $0x0,(%rax)
/export/lustre-2/verify/work/hjm/RTPG/RTG/rpg_source/src/fplib/gs_fplib.cpp:128
     de0:	48 8b 45 d8          	mov    -0x28(%rbp),%rax
     de4:	0f b6 10             	movzbl (%rax),%edx
     de7:	0f b6 45 f7          	movzbl -0x9(%rbp),%eax
     deb:	09 c2                	or     %eax,%edx
     ded:	48 8b 45 d8          	mov    -0x28(%rbp),%rax
     df1:	88 10                	mov    %dl,(%rax)
/export/lustre-2/verify/work/hjm/RTPG/RTG/rpg_source/src/fplib/gs_fplib.cpp:130
     df3:	48 8b 45 f8          	mov    -0x8(%rbp),%rax
/export/lustre-2/verify/work/hjm/RTPG/RTG/rpg_source/src/fplib/gs_fplib.cpp:131
     df7:	c9                   	leave  
     df8:	c3                   	ret    

0000000000000df9 <vfrecip32>:
vfrecip32():
/export/lustre-2/verify/work/hjm/RTPG/RTG/rpg_source/src/fplib/gs_fplib.cpp:133
     df9:	55                   	push   %rbp
     dfa:	48 89 e5             	mov    %rsp,%rbp
     dfd:	48 83 ec 30          	sub    $0x30,%rsp
     e01:	89 7d ec             	mov    %edi,-0x14(%rbp)
     e04:	89 d0                	mov    %edx,%eax
     e06:	48 89 4d d8          	mov    %rcx,-0x28(%rbp)
     e0a:	44 89 c2             	mov    %r8d,%edx
     e0d:	40 88 75 e8          	mov    %sil,-0x18(%rbp)
     e11:	88 45 e4             	mov    %al,-0x1c(%rbp)
     e14:	88 55 e0             	mov    %dl,-0x20(%rbp)
/export/lustre-2/verify/work/hjm/RTPG/RTG/rpg_source/src/fplib/gs_fplib.cpp:134
     e17:	0f b6 45 e0          	movzbl -0x20(%rbp),%eax
     e1b:	89 c7                	mov    %eax,%edi
     e1d:	e8 00 00 00 00       	call   e22 <vfrecip32+0x29>
/export/lustre-2/verify/work/hjm/RTPG/RTG/rpg_source/src/fplib/gs_fplib.cpp:136
     e22:	48 8d 55 fb          	lea    -0x5(%rbp),%rdx
     e26:	8b 45 ec             	mov    -0x14(%rbp),%eax
     e29:	48 89 d6             	mov    %rdx,%rsi
     e2c:	89 c7                	mov    %eax,%edi
     e2e:	e8 00 00 00 00       	call   e33 <vfrecip32+0x3a>
     e33:	89 45 fc             	mov    %eax,-0x4(%rbp)
/export/lustre-2/verify/work/hjm/RTPG/RTG/rpg_source/src/fplib/gs_fplib.cpp:140
     e36:	48 8b 45 d8          	mov    -0x28(%rbp),%rax
     e3a:	c6 00 00             	movb   $0x0,(%rax)
/export/lustre-2/verify/work/hjm/RTPG/RTG/rpg_source/src/fplib/gs_fplib.cpp:141
     e3d:	48 8b 45 d8          	mov    -0x28(%rbp),%rax
     e41:	0f b6 10             	movzbl (%rax),%edx
     e44:	0f b6 45 fb          	movzbl -0x5(%rbp),%eax
     e48:	09 c2                	or     %eax,%edx
     e4a:	48 8b 45 d8          	mov    -0x28(%rbp),%rax
     e4e:	88 10                	mov    %dl,(%rax)
/export/lustre-2/verify/work/hjm/RTPG/RTG/rpg_source/src/fplib/gs_fplib.cpp:143
     e50:	8b 45 fc             	mov    -0x4(%rbp),%eax
/export/lustre-2/verify/work/hjm/RTPG/RTG/rpg_source/src/fplib/gs_fplib.cpp:144
     e53:	c9                   	leave  
     e54:	c3                   	ret    

0000000000000e55 <vfrecip64>:
vfrecip64():
/export/lustre-2/verify/work/hjm/RTPG/RTG/rpg_source/src/fplib/gs_fplib.cpp:147
     e55:	55                   	push   %rbp
     e56:	48 89 e5             	mov    %rsp,%rbp
     e59:	48 83 ec 30          	sub    $0x30,%rsp
     e5d:	48 89 7d e8          	mov    %rdi,-0x18(%rbp)
     e61:	89 d0                	mov    %edx,%eax
     e63:	48 89 4d d8          	mov    %rcx,-0x28(%rbp)
     e67:	44 89 c2             	mov    %r8d,%edx
     e6a:	40 88 75 e4          	mov    %sil,-0x1c(%rbp)
     e6e:	88 45 e0             	mov    %al,-0x20(%rbp)
     e71:	88 55 d4             	mov    %dl,-0x2c(%rbp)
/export/lustre-2/verify/work/hjm/RTPG/RTG/rpg_source/src/fplib/gs_fplib.cpp:148
     e74:	0f b6 45 d4          	movzbl -0x2c(%rbp),%eax
     e78:	89 c7                	mov    %eax,%edi
     e7a:	e8 00 00 00 00       	call   e7f <vfrecip64+0x2a>
/export/lustre-2/verify/work/hjm/RTPG/RTG/rpg_source/src/fplib/gs_fplib.cpp:150
     e7f:	48 8d 55 f7          	lea    -0x9(%rbp),%rdx
     e83:	48 8b 45 e8          	mov    -0x18(%rbp),%rax
     e87:	48 89 d6             	mov    %rdx,%rsi
     e8a:	48 89 c7             	mov    %rax,%rdi
     e8d:	e8 00 00 00 00       	call   e92 <vfrecip64+0x3d>
     e92:	48 89 45 f8          	mov    %rax,-0x8(%rbp)
/export/lustre-2/verify/work/hjm/RTPG/RTG/rpg_source/src/fplib/gs_fplib.cpp:154
     e96:	48 8b 45 d8          	mov    -0x28(%rbp),%rax
     e9a:	c6 00 00             	movb   $0x0,(%rax)
/export/lustre-2/verify/work/hjm/RTPG/RTG/rpg_source/src/fplib/gs_fplib.cpp:155
     e9d:	48 8b 45 d8          	mov    -0x28(%rbp),%rax
     ea1:	0f b6 10             	movzbl (%rax),%edx
     ea4:	0f b6 45 f7          	movzbl -0x9(%rbp),%eax
     ea8:	09 c2                	or     %eax,%edx
     eaa:	48 8b 45 d8          	mov    -0x28(%rbp),%rax
     eae:	88 10                	mov    %dl,(%rax)
/export/lustre-2/verify/work/hjm/RTPG/RTG/rpg_source/src/fplib/gs_fplib.cpp:157
     eb0:	48 8b 45 f8          	mov    -0x8(%rbp),%rax
/export/lustre-2/verify/work/hjm/RTPG/RTG/rpg_source/src/fplib/gs_fplib.cpp:158
     eb4:	c9                   	leave  
     eb5:	c3                   	ret    

0000000000000eb6 <vfsqrt32>:
vfsqrt32():
/export/lustre-2/verify/work/hjm/RTPG/RTG/rpg_source/src/fplib/gs_fplib.cpp:160
     eb6:	55                   	push   %rbp
     eb7:	48 89 e5             	mov    %rsp,%rbp
     eba:	48 83 ec 30          	sub    $0x30,%rsp
     ebe:	89 7d ec             	mov    %edi,-0x14(%rbp)
     ec1:	89 d0                	mov    %edx,%eax
     ec3:	48 89 4d d8          	mov    %rcx,-0x28(%rbp)
     ec7:	44 89 c2             	mov    %r8d,%edx
     eca:	40 88 75 e8          	mov    %sil,-0x18(%rbp)
     ece:	88 45 e4             	mov    %al,-0x1c(%rbp)
     ed1:	88 55 e0             	mov    %dl,-0x20(%rbp)
/export/lustre-2/verify/work/hjm/RTPG/RTG/rpg_source/src/fplib/gs_fplib.cpp:161
     ed4:	0f b6 45 e0          	movzbl -0x20(%rbp),%eax
     ed8:	89 c7                	mov    %eax,%edi
     eda:	e8 00 00 00 00       	call   edf <vfsqrt32+0x29>
/export/lustre-2/verify/work/hjm/RTPG/RTG/rpg_source/src/fplib/gs_fplib.cpp:163
     edf:	48 8d 55 fb          	lea    -0x5(%rbp),%rdx
     ee3:	8b 45 ec             	mov    -0x14(%rbp),%eax
     ee6:	48 89 d6             	mov    %rdx,%rsi
     ee9:	89 c7                	mov    %eax,%edi
     eeb:	e8 00 00 00 00       	call   ef0 <vfsqrt32+0x3a>
     ef0:	89 45 fc             	mov    %eax,-0x4(%rbp)
/export/lustre-2/verify/work/hjm/RTPG/RTG/rpg_source/src/fplib/gs_fplib.cpp:167
     ef3:	48 8b 45 d8          	mov    -0x28(%rbp),%rax
     ef7:	c6 00 00             	movb   $0x0,(%rax)
/export/lustre-2/verify/work/hjm/RTPG/RTG/rpg_source/src/fplib/gs_fplib.cpp:168
     efa:	48 8b 45 d8          	mov    -0x28(%rbp),%rax
     efe:	0f b6 10             	movzbl (%rax),%edx
     f01:	0f b6 45 fb          	movzbl -0x5(%rbp),%eax
     f05:	09 c2                	or     %eax,%edx
     f07:	48 8b 45 d8          	mov    -0x28(%rbp),%rax
     f0b:	88 10                	mov    %dl,(%rax)
/export/lustre-2/verify/work/hjm/RTPG/RTG/rpg_source/src/fplib/gs_fplib.cpp:170
     f0d:	8b 45 fc             	mov    -0x4(%rbp),%eax
/export/lustre-2/verify/work/hjm/RTPG/RTG/rpg_source/src/fplib/gs_fplib.cpp:171
     f10:	c9                   	leave  
     f11:	c3                   	ret    

0000000000000f12 <vfsqrt64>:
vfsqrt64():
/export/lustre-2/verify/work/hjm/RTPG/RTG/rpg_source/src/fplib/gs_fplib.cpp:174
     f12:	55                   	push   %rbp
     f13:	48 89 e5             	mov    %rsp,%rbp
     f16:	48 83 ec 30          	sub    $0x30,%rsp
     f1a:	48 89 7d e8          	mov    %rdi,-0x18(%rbp)
     f1e:	89 d0                	mov    %edx,%eax
     f20:	48 89 4d d8          	mov    %rcx,-0x28(%rbp)
     f24:	44 89 c2             	mov    %r8d,%edx
     f27:	40 88 75 e4          	mov    %sil,-0x1c(%rbp)
     f2b:	88 45 e0             	mov    %al,-0x20(%rbp)
     f2e:	88 55 d4             	mov    %dl,-0x2c(%rbp)
/export/lustre-2/verify/work/hjm/RTPG/RTG/rpg_source/src/fplib/gs_fplib.cpp:175
     f31:	0f b6 45 d4          	movzbl -0x2c(%rbp),%eax
     f35:	89 c7                	mov    %eax,%edi
     f37:	e8 00 00 00 00       	call   f3c <vfsqrt64+0x2a>
/export/lustre-2/verify/work/hjm/RTPG/RTG/rpg_source/src/fplib/gs_fplib.cpp:177
     f3c:	48 8d 55 f7          	lea    -0x9(%rbp),%rdx
     f40:	48 8b 45 e8          	mov    -0x18(%rbp),%rax
     f44:	48 89 d6             	mov    %rdx,%rsi
     f47:	48 89 c7             	mov    %rax,%rdi
     f4a:	e8 00 00 00 00       	call   f4f <vfsqrt64+0x3d>
     f4f:	48 89 45 f8          	mov    %rax,-0x8(%rbp)
/export/lustre-2/verify/work/hjm/RTPG/RTG/rpg_source/src/fplib/gs_fplib.cpp:181
     f53:	48 8b 45 d8          	mov    -0x28(%rbp),%rax
     f57:	c6 00 00             	movb   $0x0,(%rax)
/export/lustre-2/verify/work/hjm/RTPG/RTG/rpg_source/src/fplib/gs_fplib.cpp:182
     f5a:	48 8b 45 d8          	mov    -0x28(%rbp),%rax
     f5e:	0f b6 10             	movzbl (%rax),%edx
     f61:	0f b6 45 f7          	movzbl -0x9(%rbp),%eax
     f65:	09 c2                	or     %eax,%edx
     f67:	48 8b 45 d8          	mov    -0x28(%rbp),%rax
     f6b:	88 10                	mov    %dl,(%rax)
/export/lustre-2/verify/work/hjm/RTPG/RTG/rpg_source/src/fplib/gs_fplib.cpp:184
     f6d:	48 8b 45 f8          	mov    -0x8(%rbp),%rax
/export/lustre-2/verify/work/hjm/RTPG/RTG/rpg_source/src/fplib/gs_fplib.cpp:185
     f71:	c9                   	leave  
     f72:	c3                   	ret    

0000000000000f73 <vflog32>:
vflog32():
/export/lustre-2/verify/work/hjm/RTPG/RTG/rpg_source/src/fplib/gs_fplib.cpp:187
     f73:	55                   	push   %rbp
     f74:	48 89 e5             	mov    %rsp,%rbp
     f77:	48 83 ec 30          	sub    $0x30,%rsp
     f7b:	89 7d ec             	mov    %edi,-0x14(%rbp)
     f7e:	89 d0                	mov    %edx,%eax
     f80:	48 89 4d d8          	mov    %rcx,-0x28(%rbp)
     f84:	44 89 c2             	mov    %r8d,%edx
     f87:	40 88 75 e8          	mov    %sil,-0x18(%rbp)
     f8b:	88 45 e4             	mov    %al,-0x1c(%rbp)
     f8e:	88 55 e0             	mov    %dl,-0x20(%rbp)
/export/lustre-2/verify/work/hjm/RTPG/RTG/rpg_source/src/fplib/gs_fplib.cpp:188
     f91:	0f b6 45 e0          	movzbl -0x20(%rbp),%eax
     f95:	89 c7                	mov    %eax,%edi
     f97:	e8 00 00 00 00       	call   f9c <vflog32+0x29>
/export/lustre-2/verify/work/hjm/RTPG/RTG/rpg_source/src/fplib/gs_fplib.cpp:190
     f9c:	48 8d 55 fb          	lea    -0x5(%rbp),%rdx
     fa0:	8b 45 ec             	mov    -0x14(%rbp),%eax
     fa3:	48 89 d6             	mov    %rdx,%rsi
     fa6:	89 c7                	mov    %eax,%edi
     fa8:	e8 00 00 00 00       	call   fad <vflog32+0x3a>
     fad:	89 45 fc             	mov    %eax,-0x4(%rbp)
/export/lustre-2/verify/work/hjm/RTPG/RTG/rpg_source/src/fplib/gs_fplib.cpp:194
     fb0:	48 8b 45 d8          	mov    -0x28(%rbp),%rax
     fb4:	c6 00 00             	movb   $0x0,(%rax)
/export/lustre-2/verify/work/hjm/RTPG/RTG/rpg_source/src/fplib/gs_fplib.cpp:195
     fb7:	48 8b 45 d8          	mov    -0x28(%rbp),%rax
     fbb:	0f b6 10             	movzbl (%rax),%edx
     fbe:	0f b6 45 fb          	movzbl -0x5(%rbp),%eax
     fc2:	09 c2                	or     %eax,%edx
     fc4:	48 8b 45 d8          	mov    -0x28(%rbp),%rax
     fc8:	88 10                	mov    %dl,(%rax)
/export/lustre-2/verify/work/hjm/RTPG/RTG/rpg_source/src/fplib/gs_fplib.cpp:197
     fca:	8b 45 fc             	mov    -0x4(%rbp),%eax
/export/lustre-2/verify/work/hjm/RTPG/RTG/rpg_source/src/fplib/gs_fplib.cpp:198
     fcd:	c9                   	leave  
     fce:	c3                   	ret    

0000000000000fcf <vflog64>:
vflog64():
/export/lustre-2/verify/work/hjm/RTPG/RTG/rpg_source/src/fplib/gs_fplib.cpp:201
     fcf:	55                   	push   %rbp
     fd0:	48 89 e5             	mov    %rsp,%rbp
     fd3:	48 83 ec 30          	sub    $0x30,%rsp
     fd7:	48 89 7d e8          	mov    %rdi,-0x18(%rbp)
     fdb:	89 d0                	mov    %edx,%eax
     fdd:	48 89 4d d8          	mov    %rcx,-0x28(%rbp)
     fe1:	44 89 c2             	mov    %r8d,%edx
     fe4:	40 88 75 e4          	mov    %sil,-0x1c(%rbp)
     fe8:	88 45 e0             	mov    %al,-0x20(%rbp)
     feb:	88 55 d4             	mov    %dl,-0x2c(%rbp)
/export/lustre-2/verify/work/hjm/RTPG/RTG/rpg_source/src/fplib/gs_fplib.cpp:202
     fee:	0f b6 45 d4          	movzbl -0x2c(%rbp),%eax
     ff2:	89 c7                	mov    %eax,%edi
     ff4:	e8 00 00 00 00       	call   ff9 <vflog64+0x2a>
/export/lustre-2/verify/work/hjm/RTPG/RTG/rpg_source/src/fplib/gs_fplib.cpp:204
     ff9:	48 8d 55 f7          	lea    -0x9(%rbp),%rdx
     ffd:	48 8b 45 e8          	mov    -0x18(%rbp),%rax
    1001:	48 89 d6             	mov    %rdx,%rsi
    1004:	48 89 c7             	mov    %rax,%rdi
    1007:	e8 00 00 00 00       	call   100c <vflog64+0x3d>
    100c:	48 89 45 f8          	mov    %rax,-0x8(%rbp)
/export/lustre-2/verify/work/hjm/RTPG/RTG/rpg_source/src/fplib/gs_fplib.cpp:208
    1010:	48 8b 45 d8          	mov    -0x28(%rbp),%rax
    1014:	c6 00 00             	movb   $0x0,(%rax)
/export/lustre-2/verify/work/hjm/RTPG/RTG/rpg_source/src/fplib/gs_fplib.cpp:209
    1017:	48 8b 45 d8          	mov    -0x28(%rbp),%rax
    101b:	0f b6 10             	movzbl (%rax),%edx
    101e:	0f b6 45 f7          	movzbl -0x9(%rbp),%eax
    1022:	09 c2                	or     %eax,%edx
    1024:	48 8b 45 d8          	mov    -0x28(%rbp),%rax
    1028:	88 10                	mov    %dl,(%rax)
/export/lustre-2/verify/work/hjm/RTPG/RTG/rpg_source/src/fplib/gs_fplib.cpp:211
    102a:	48 8b 45 f8          	mov    -0x8(%rbp),%rax
/export/lustre-2/verify/work/hjm/RTPG/RTG/rpg_source/src/fplib/gs_fplib.cpp:212
    102e:	c9                   	leave  
    102f:	c3                   	ret    

0000000000001030 <vfmax32>:
vfmax32():
/export/lustre-2/verify/work/hjm/RTPG/RTG/rpg_source/src/fplib/gs_fplib.cpp:214
    1030:	55                   	push   %rbp
    1031:	48 89 e5             	mov    %rsp,%rbp
    1034:	48 83 ec 30          	sub    $0x30,%rsp
    1038:	89 7d ec             	mov    %edi,-0x14(%rbp)
    103b:	89 75 e8             	mov    %esi,-0x18(%rbp)
    103e:	89 c8                	mov    %ecx,%eax
    1040:	4c 89 45 d8          	mov    %r8,-0x28(%rbp)
    1044:	44 89 c9             	mov    %r9d,%ecx
    1047:	88 55 e4             	mov    %dl,-0x1c(%rbp)
    104a:	88 45 e0             	mov    %al,-0x20(%rbp)
    104d:	88 4d d4             	mov    %cl,-0x2c(%rbp)
/export/lustre-2/verify/work/hjm/RTPG/RTG/rpg_source/src/fplib/gs_fplib.cpp:215
    1050:	0f b6 45 d4          	movzbl -0x2c(%rbp),%eax
    1054:	89 c7                	mov    %eax,%edi
    1056:	e8 00 00 00 00       	call   105b <vfmax32+0x2b>
/export/lustre-2/verify/work/hjm/RTPG/RTG/rpg_source/src/fplib/gs_fplib.cpp:217
    105b:	48 8d 55 fb          	lea    -0x5(%rbp),%rdx
    105f:	8b 4d e8             	mov    -0x18(%rbp),%ecx
    1062:	8b 45 ec             	mov    -0x14(%rbp),%eax
    1065:	89 ce                	mov    %ecx,%esi
    1067:	89 c7                	mov    %eax,%edi
    1069:	e8 00 00 00 00       	call   106e <vfmax32+0x3e>
    106e:	89 45 fc             	mov    %eax,-0x4(%rbp)
/export/lustre-2/verify/work/hjm/RTPG/RTG/rpg_source/src/fplib/gs_fplib.cpp:221
    1071:	48 8b 45 d8          	mov    -0x28(%rbp),%rax
    1075:	c6 00 00             	movb   $0x0,(%rax)
/export/lustre-2/verify/work/hjm/RTPG/RTG/rpg_source/src/fplib/gs_fplib.cpp:222
    1078:	48 8b 45 d8          	mov    -0x28(%rbp),%rax
    107c:	0f b6 10             	movzbl (%rax),%edx
    107f:	0f b6 45 fb          	movzbl -0x5(%rbp),%eax
    1083:	09 c2                	or     %eax,%edx
    1085:	48 8b 45 d8          	mov    -0x28(%rbp),%rax
    1089:	88 10                	mov    %dl,(%rax)
/export/lustre-2/verify/work/hjm/RTPG/RTG/rpg_source/src/fplib/gs_fplib.cpp:224
    108b:	8b 45 fc             	mov    -0x4(%rbp),%eax
/export/lustre-2/verify/work/hjm/RTPG/RTG/rpg_source/src/fplib/gs_fplib.cpp:225
    108e:	c9                   	leave  
    108f:	c3                   	ret    

0000000000001090 <vfmax64>:
vfmax64():
/export/lustre-2/verify/work/hjm/RTPG/RTG/rpg_source/src/fplib/gs_fplib.cpp:228
    1090:	55                   	push   %rbp
    1091:	48 89 e5             	mov    %rsp,%rbp
    1094:	48 83 ec 40          	sub    $0x40,%rsp
    1098:	48 89 7d e8          	mov    %rdi,-0x18(%rbp)
    109c:	48 89 75 e0          	mov    %rsi,-0x20(%rbp)
    10a0:	89 c8                	mov    %ecx,%eax
    10a2:	4c 89 45 d0          	mov    %r8,-0x30(%rbp)
    10a6:	44 89 c9             	mov    %r9d,%ecx
    10a9:	88 55 dc             	mov    %dl,-0x24(%rbp)
    10ac:	88 45 d8             	mov    %al,-0x28(%rbp)
    10af:	88 4d cc             	mov    %cl,-0x34(%rbp)
/export/lustre-2/verify/work/hjm/RTPG/RTG/rpg_source/src/fplib/gs_fplib.cpp:229
    10b2:	0f b6 45 cc          	movzbl -0x34(%rbp),%eax
    10b6:	89 c7                	mov    %eax,%edi
    10b8:	e8 00 00 00 00       	call   10bd <vfmax64+0x2d>
/export/lustre-2/verify/work/hjm/RTPG/RTG/rpg_source/src/fplib/gs_fplib.cpp:231
    10bd:	48 8d 55 f7          	lea    -0x9(%rbp),%rdx
    10c1:	48 8b 4d e0          	mov    -0x20(%rbp),%rcx
    10c5:	48 8b 45 e8          	mov    -0x18(%rbp),%rax
    10c9:	48 89 ce             	mov    %rcx,%rsi
    10cc:	48 89 c7             	mov    %rax,%rdi
    10cf:	e8 00 00 00 00       	call   10d4 <vfmax64+0x44>
    10d4:	48 89 45 f8          	mov    %rax,-0x8(%rbp)
/export/lustre-2/verify/work/hjm/RTPG/RTG/rpg_source/src/fplib/gs_fplib.cpp:235
    10d8:	48 8b 45 d0          	mov    -0x30(%rbp),%rax
    10dc:	c6 00 00             	movb   $0x0,(%rax)
/export/lustre-2/verify/work/hjm/RTPG/RTG/rpg_source/src/fplib/gs_fplib.cpp:236
    10df:	48 8b 45 d0          	mov    -0x30(%rbp),%rax
    10e3:	0f b6 10             	movzbl (%rax),%edx
    10e6:	0f b6 45 f7          	movzbl -0x9(%rbp),%eax
    10ea:	09 c2                	or     %eax,%edx
    10ec:	48 8b 45 d0          	mov    -0x30(%rbp),%rax
    10f0:	88 10                	mov    %dl,(%rax)
/export/lustre-2/verify/work/hjm/RTPG/RTG/rpg_source/src/fplib/gs_fplib.cpp:238
    10f2:	48 8b 45 f8          	mov    -0x8(%rbp),%rax
/export/lustre-2/verify/work/hjm/RTPG/RTG/rpg_source/src/fplib/gs_fplib.cpp:239
    10f6:	c9                   	leave  
    10f7:	c3                   	ret    

00000000000010f8 <vfmin32>:
vfmin32():
/export/lustre-2/verify/work/hjm/RTPG/RTG/rpg_source/src/fplib/gs_fplib.cpp:241
    10f8:	55                   	push   %rbp
    10f9:	48 89 e5             	mov    %rsp,%rbp
    10fc:	48 83 ec 30          	sub    $0x30,%rsp
    1100:	89 7d ec             	mov    %edi,-0x14(%rbp)
    1103:	89 75 e8             	mov    %esi,-0x18(%rbp)
    1106:	89 c8                	mov    %ecx,%eax
    1108:	4c 89 45 d8          	mov    %r8,-0x28(%rbp)
    110c:	44 89 c9             	mov    %r9d,%ecx
    110f:	88 55 e4             	mov    %dl,-0x1c(%rbp)
    1112:	88 45 e0             	mov    %al,-0x20(%rbp)
    1115:	88 4d d4             	mov    %cl,-0x2c(%rbp)
/export/lustre-2/verify/work/hjm/RTPG/RTG/rpg_source/src/fplib/gs_fplib.cpp:242
    1118:	0f b6 45 d4          	movzbl -0x2c(%rbp),%eax
    111c:	89 c7                	mov    %eax,%edi
    111e:	e8 00 00 00 00       	call   1123 <vfmin32+0x2b>
/export/lustre-2/verify/work/hjm/RTPG/RTG/rpg_source/src/fplib/gs_fplib.cpp:244
    1123:	48 8d 55 fb          	lea    -0x5(%rbp),%rdx
    1127:	8b 4d e8             	mov    -0x18(%rbp),%ecx
    112a:	8b 45 ec             	mov    -0x14(%rbp),%eax
    112d:	89 ce                	mov    %ecx,%esi
    112f:	89 c7                	mov    %eax,%edi
    1131:	e8 00 00 00 00       	call   1136 <vfmin32+0x3e>
    1136:	89 45 fc             	mov    %eax,-0x4(%rbp)
/export/lustre-2/verify/work/hjm/RTPG/RTG/rpg_source/src/fplib/gs_fplib.cpp:248
    1139:	48 8b 45 d8          	mov    -0x28(%rbp),%rax
    113d:	c6 00 00             	movb   $0x0,(%rax)
/export/lustre-2/verify/work/hjm/RTPG/RTG/rpg_source/src/fplib/gs_fplib.cpp:249
    1140:	48 8b 45 d8          	mov    -0x28(%rbp),%rax
    1144:	0f b6 10             	movzbl (%rax),%edx
    1147:	0f b6 45 fb          	movzbl -0x5(%rbp),%eax
    114b:	09 c2                	or     %eax,%edx
    114d:	48 8b 45 d8          	mov    -0x28(%rbp),%rax
    1151:	88 10                	mov    %dl,(%rax)
/export/lustre-2/verify/work/hjm/RTPG/RTG/rpg_source/src/fplib/gs_fplib.cpp:251
    1153:	8b 45 fc             	mov    -0x4(%rbp),%eax
/export/lustre-2/verify/work/hjm/RTPG/RTG/rpg_source/src/fplib/gs_fplib.cpp:252
    1156:	c9                   	leave  
    1157:	c3                   	ret    

0000000000001158 <vfmin64>:
vfmin64():
/export/lustre-2/verify/work/hjm/RTPG/RTG/rpg_source/src/fplib/gs_fplib.cpp:255
    1158:	55                   	push   %rbp
    1159:	48 89 e5             	mov    %rsp,%rbp
    115c:	48 83 ec 40          	sub    $0x40,%rsp
    1160:	48 89 7d e8          	mov    %rdi,-0x18(%rbp)
    1164:	48 89 75 e0          	mov    %rsi,-0x20(%rbp)
    1168:	89 c8                	mov    %ecx,%eax
    116a:	4c 89 45 d0          	mov    %r8,-0x30(%rbp)
    116e:	44 89 c9             	mov    %r9d,%ecx
    1171:	88 55 dc             	mov    %dl,-0x24(%rbp)
    1174:	88 45 d8             	mov    %al,-0x28(%rbp)
    1177:	88 4d cc             	mov    %cl,-0x34(%rbp)
/export/lustre-2/verify/work/hjm/RTPG/RTG/rpg_source/src/fplib/gs_fplib.cpp:256
    117a:	0f b6 45 cc          	movzbl -0x34(%rbp),%eax
    117e:	89 c7                	mov    %eax,%edi
    1180:	e8 00 00 00 00       	call   1185 <vfmin64+0x2d>
/export/lustre-2/verify/work/hjm/RTPG/RTG/rpg_source/src/fplib/gs_fplib.cpp:258
    1185:	48 8d 55 f7          	lea    -0x9(%rbp),%rdx
    1189:	48 8b 4d e0          	mov    -0x20(%rbp),%rcx
    118d:	48 8b 45 e8          	mov    -0x18(%rbp),%rax
    1191:	48 89 ce             	mov    %rcx,%rsi
    1194:	48 89 c7             	mov    %rax,%rdi
    1197:	e8 00 00 00 00       	call   119c <vfmin64+0x44>
    119c:	48 89 45 f8          	mov    %rax,-0x8(%rbp)
/export/lustre-2/verify/work/hjm/RTPG/RTG/rpg_source/src/fplib/gs_fplib.cpp:262
    11a0:	48 8b 45 d0          	mov    -0x30(%rbp),%rax
    11a4:	c6 00 00             	movb   $0x0,(%rax)
/export/lustre-2/verify/work/hjm/RTPG/RTG/rpg_source/src/fplib/gs_fplib.cpp:263
    11a7:	48 8b 45 d0          	mov    -0x30(%rbp),%rax
    11ab:	0f b6 10             	movzbl (%rax),%edx
    11ae:	0f b6 45 f7          	movzbl -0x9(%rbp),%eax
    11b2:	09 c2                	or     %eax,%edx
    11b4:	48 8b 45 d0          	mov    -0x30(%rbp),%rax
    11b8:	88 10                	mov    %dl,(%rax)
/export/lustre-2/verify/work/hjm/RTPG/RTG/rpg_source/src/fplib/gs_fplib.cpp:265
    11ba:	48 8b 45 f8          	mov    -0x8(%rbp),%rax
/export/lustre-2/verify/work/hjm/RTPG/RTG/rpg_source/src/fplib/gs_fplib.cpp:266
    11be:	c9                   	leave  
    11bf:	c3                   	ret    

00000000000011c0 <vfmin_abs32>:
vfmin_abs32():
/export/lustre-2/verify/work/hjm/RTPG/RTG/rpg_source/src/fplib/gs_fplib.cpp:269
    11c0:	55                   	push   %rbp
    11c1:	48 89 e5             	mov    %rsp,%rbp
    11c4:	48 83 ec 30          	sub    $0x30,%rsp
    11c8:	89 7d ec             	mov    %edi,-0x14(%rbp)
    11cb:	89 75 e8             	mov    %esi,-0x18(%rbp)
    11ce:	89 c8                	mov    %ecx,%eax
    11d0:	4c 89 45 d8          	mov    %r8,-0x28(%rbp)
    11d4:	44 89 c9             	mov    %r9d,%ecx
    11d7:	88 55 e4             	mov    %dl,-0x1c(%rbp)
    11da:	88 45 e0             	mov    %al,-0x20(%rbp)
    11dd:	88 4d d4             	mov    %cl,-0x2c(%rbp)
/export/lustre-2/verify/work/hjm/RTPG/RTG/rpg_source/src/fplib/gs_fplib.cpp:270
    11e0:	0f b6 45 d4          	movzbl -0x2c(%rbp),%eax
    11e4:	89 c7                	mov    %eax,%edi
    11e6:	e8 00 00 00 00       	call   11eb <vfmin_abs32+0x2b>
/export/lustre-2/verify/work/hjm/RTPG/RTG/rpg_source/src/fplib/gs_fplib.cpp:272
    11eb:	48 8d 55 fb          	lea    -0x5(%rbp),%rdx
    11ef:	8b 4d e8             	mov    -0x18(%rbp),%ecx
    11f2:	8b 45 ec             	mov    -0x14(%rbp),%eax
    11f5:	89 ce                	mov    %ecx,%esi
    11f7:	89 c7                	mov    %eax,%edi
    11f9:	e8 00 00 00 00       	call   11fe <vfmin_abs32+0x3e>
    11fe:	89 45 fc             	mov    %eax,-0x4(%rbp)
/export/lustre-2/verify/work/hjm/RTPG/RTG/rpg_source/src/fplib/gs_fplib.cpp:276
    1201:	48 8b 45 d8          	mov    -0x28(%rbp),%rax
    1205:	c6 00 00             	movb   $0x0,(%rax)
/export/lustre-2/verify/work/hjm/RTPG/RTG/rpg_source/src/fplib/gs_fplib.cpp:277
    1208:	48 8b 45 d8          	mov    -0x28(%rbp),%rax
    120c:	0f b6 10             	movzbl (%rax),%edx
    120f:	0f b6 45 fb          	movzbl -0x5(%rbp),%eax
    1213:	09 c2                	or     %eax,%edx
    1215:	48 8b 45 d8          	mov    -0x28(%rbp),%rax
    1219:	88 10                	mov    %dl,(%rax)
/export/lustre-2/verify/work/hjm/RTPG/RTG/rpg_source/src/fplib/gs_fplib.cpp:279
    121b:	8b 45 fc             	mov    -0x4(%rbp),%eax
/export/lustre-2/verify/work/hjm/RTPG/RTG/rpg_source/src/fplib/gs_fplib.cpp:280
    121e:	c9                   	leave  
    121f:	c3                   	ret    

0000000000001220 <vfmin_abs64>:
vfmin_abs64():
/export/lustre-2/verify/work/hjm/RTPG/RTG/rpg_source/src/fplib/gs_fplib.cpp:283
    1220:	55                   	push   %rbp
    1221:	48 89 e5             	mov    %rsp,%rbp
    1224:	48 83 ec 40          	sub    $0x40,%rsp
    1228:	48 89 7d e8          	mov    %rdi,-0x18(%rbp)
    122c:	48 89 75 e0          	mov    %rsi,-0x20(%rbp)
    1230:	89 c8                	mov    %ecx,%eax
    1232:	4c 89 45 d0          	mov    %r8,-0x30(%rbp)
    1236:	44 89 c9             	mov    %r9d,%ecx
    1239:	88 55 dc             	mov    %dl,-0x24(%rbp)
    123c:	88 45 d8             	mov    %al,-0x28(%rbp)
    123f:	88 4d cc             	mov    %cl,-0x34(%rbp)
/export/lustre-2/verify/work/hjm/RTPG/RTG/rpg_source/src/fplib/gs_fplib.cpp:284
    1242:	0f b6 45 cc          	movzbl -0x34(%rbp),%eax
    1246:	89 c7                	mov    %eax,%edi
    1248:	e8 00 00 00 00       	call   124d <vfmin_abs64+0x2d>
/export/lustre-2/verify/work/hjm/RTPG/RTG/rpg_source/src/fplib/gs_fplib.cpp:286
    124d:	48 8d 55 f7          	lea    -0x9(%rbp),%rdx
    1251:	48 8b 4d e0          	mov    -0x20(%rbp),%rcx
    1255:	48 8b 45 e8          	mov    -0x18(%rbp),%rax
    1259:	48 89 ce             	mov    %rcx,%rsi
    125c:	48 89 c7             	mov    %rax,%rdi
    125f:	e8 00 00 00 00       	call   1264 <vfmin_abs64+0x44>
    1264:	48 89 45 f8          	mov    %rax,-0x8(%rbp)
/export/lustre-2/verify/work/hjm/RTPG/RTG/rpg_source/src/fplib/gs_fplib.cpp:290
    1268:	48 8b 45 d0          	mov    -0x30(%rbp),%rax
    126c:	c6 00 00             	movb   $0x0,(%rax)
/export/lustre-2/verify/work/hjm/RTPG/RTG/rpg_source/src/fplib/gs_fplib.cpp:291
    126f:	48 8b 45 d0          	mov    -0x30(%rbp),%rax
    1273:	0f b6 10             	movzbl (%rax),%edx
    1276:	0f b6 45 f7          	movzbl -0x9(%rbp),%eax
    127a:	09 c2                	or     %eax,%edx
    127c:	48 8b 45 d0          	mov    -0x30(%rbp),%rax
    1280:	88 10                	mov    %dl,(%rax)
/export/lustre-2/verify/work/hjm/RTPG/RTG/rpg_source/src/fplib/gs_fplib.cpp:293
    1282:	48 8b 45 f8          	mov    -0x8(%rbp),%rax
/export/lustre-2/verify/work/hjm/RTPG/RTG/rpg_source/src/fplib/gs_fplib.cpp:294
    1286:	c9                   	leave  
    1287:	c3                   	ret    

0000000000001288 <vfmax_abs32>:
vfmax_abs32():
/export/lustre-2/verify/work/hjm/RTPG/RTG/rpg_source/src/fplib/gs_fplib.cpp:297
    1288:	55                   	push   %rbp
    1289:	48 89 e5             	mov    %rsp,%rbp
    128c:	48 83 ec 30          	sub    $0x30,%rsp
    1290:	89 7d ec             	mov    %edi,-0x14(%rbp)
    1293:	89 75 e8             	mov    %esi,-0x18(%rbp)
    1296:	89 c8                	mov    %ecx,%eax
    1298:	4c 89 45 d8          	mov    %r8,-0x28(%rbp)
    129c:	44 89 c9             	mov    %r9d,%ecx
    129f:	88 55 e4             	mov    %dl,-0x1c(%rbp)
    12a2:	88 45 e0             	mov    %al,-0x20(%rbp)
    12a5:	88 4d d4             	mov    %cl,-0x2c(%rbp)
/export/lustre-2/verify/work/hjm/RTPG/RTG/rpg_source/src/fplib/gs_fplib.cpp:298
    12a8:	0f b6 45 d4          	movzbl -0x2c(%rbp),%eax
    12ac:	89 c7                	mov    %eax,%edi
    12ae:	e8 00 00 00 00       	call   12b3 <vfmax_abs32+0x2b>
/export/lustre-2/verify/work/hjm/RTPG/RTG/rpg_source/src/fplib/gs_fplib.cpp:300
    12b3:	48 8d 55 fb          	lea    -0x5(%rbp),%rdx
    12b7:	8b 4d e8             	mov    -0x18(%rbp),%ecx
    12ba:	8b 45 ec             	mov    -0x14(%rbp),%eax
    12bd:	89 ce                	mov    %ecx,%esi
    12bf:	89 c7                	mov    %eax,%edi
    12c1:	e8 00 00 00 00       	call   12c6 <vfmax_abs32+0x3e>
    12c6:	89 45 fc             	mov    %eax,-0x4(%rbp)
/export/lustre-2/verify/work/hjm/RTPG/RTG/rpg_source/src/fplib/gs_fplib.cpp:304
    12c9:	48 8b 45 d8          	mov    -0x28(%rbp),%rax
    12cd:	c6 00 00             	movb   $0x0,(%rax)
/export/lustre-2/verify/work/hjm/RTPG/RTG/rpg_source/src/fplib/gs_fplib.cpp:305
    12d0:	48 8b 45 d8          	mov    -0x28(%rbp),%rax
    12d4:	0f b6 10             	movzbl (%rax),%edx
    12d7:	0f b6 45 fb          	movzbl -0x5(%rbp),%eax
    12db:	09 c2                	or     %eax,%edx
    12dd:	48 8b 45 d8          	mov    -0x28(%rbp),%rax
    12e1:	88 10                	mov    %dl,(%rax)
/export/lustre-2/verify/work/hjm/RTPG/RTG/rpg_source/src/fplib/gs_fplib.cpp:307
    12e3:	8b 45 fc             	mov    -0x4(%rbp),%eax
/export/lustre-2/verify/work/hjm/RTPG/RTG/rpg_source/src/fplib/gs_fplib.cpp:308
    12e6:	c9                   	leave  
    12e7:	c3                   	ret    

00000000000012e8 <vfmax_abs64>:
vfmax_abs64():
/export/lustre-2/verify/work/hjm/RTPG/RTG/rpg_source/src/fplib/gs_fplib.cpp:311
    12e8:	55                   	push   %rbp
    12e9:	48 89 e5             	mov    %rsp,%rbp
    12ec:	48 83 ec 40          	sub    $0x40,%rsp
    12f0:	48 89 7d e8          	mov    %rdi,-0x18(%rbp)
    12f4:	48 89 75 e0          	mov    %rsi,-0x20(%rbp)
    12f8:	89 c8                	mov    %ecx,%eax
    12fa:	4c 89 45 d0          	mov    %r8,-0x30(%rbp)
    12fe:	44 89 c9             	mov    %r9d,%ecx
    1301:	88 55 dc             	mov    %dl,-0x24(%rbp)
    1304:	88 45 d8             	mov    %al,-0x28(%rbp)
    1307:	88 4d cc             	mov    %cl,-0x34(%rbp)
/export/lustre-2/verify/work/hjm/RTPG/RTG/rpg_source/src/fplib/gs_fplib.cpp:312
    130a:	0f b6 45 cc          	movzbl -0x34(%rbp),%eax
    130e:	89 c7                	mov    %eax,%edi
    1310:	e8 00 00 00 00       	call   1315 <vfmax_abs64+0x2d>
/export/lustre-2/verify/work/hjm/RTPG/RTG/rpg_source/src/fplib/gs_fplib.cpp:314
    1315:	48 8d 55 f7          	lea    -0x9(%rbp),%rdx
    1319:	48 8b 4d e0          	mov    -0x20(%rbp),%rcx
    131d:	48 8b 45 e8          	mov    -0x18(%rbp),%rax
    1321:	48 89 ce             	mov    %rcx,%rsi
    1324:	48 89 c7             	mov    %rax,%rdi
    1327:	e8 00 00 00 00       	call   132c <vfmax_abs64+0x44>
    132c:	48 89 45 f8          	mov    %rax,-0x8(%rbp)
/export/lustre-2/verify/work/hjm/RTPG/RTG/rpg_source/src/fplib/gs_fplib.cpp:318
    1330:	48 8b 45 d0          	mov    -0x30(%rbp),%rax
    1334:	c6 00 00             	movb   $0x0,(%rax)
/export/lustre-2/verify/work/hjm/RTPG/RTG/rpg_source/src/fplib/gs_fplib.cpp:319
    1337:	48 8b 45 d0          	mov    -0x30(%rbp),%rax
    133b:	0f b6 10             	movzbl (%rax),%edx
    133e:	0f b6 45 f7          	movzbl -0x9(%rbp),%eax
    1342:	09 c2                	or     %eax,%edx
    1344:	48 8b 45 d0          	mov    -0x30(%rbp),%rax
    1348:	88 10                	mov    %dl,(%rax)
/export/lustre-2/verify/work/hjm/RTPG/RTG/rpg_source/src/fplib/gs_fplib.cpp:321
    134a:	48 8b 45 f8          	mov    -0x8(%rbp),%rax
/export/lustre-2/verify/work/hjm/RTPG/RTG/rpg_source/src/fplib/gs_fplib.cpp:322
    134e:	c9                   	leave  
    134f:	c3                   	ret    

0000000000001350 <fmax32>:
fmax32():
/export/lustre-2/verify/work/hjm/RTPG/RTG/rpg_source/src/fplib/gs_fplib.cpp:326
    1350:	55                   	push   %rbp
    1351:	48 89 e5             	mov    %rsp,%rbp
    1354:	48 83 ec 30          	sub    $0x30,%rsp
    1358:	89 7d ec             	mov    %edi,-0x14(%rbp)
    135b:	89 75 e8             	mov    %esi,-0x18(%rbp)
    135e:	89 c8                	mov    %ecx,%eax
    1360:	4c 89 45 d8          	mov    %r8,-0x28(%rbp)
    1364:	88 55 e4             	mov    %dl,-0x1c(%rbp)
    1367:	88 45 e0             	mov    %al,-0x20(%rbp)
/export/lustre-2/verify/work/hjm/RTPG/RTG/rpg_source/src/fplib/gs_fplib.cpp:328
    136a:	48 8d 55 fb          	lea    -0x5(%rbp),%rdx
    136e:	8b 4d e8             	mov    -0x18(%rbp),%ecx
    1371:	8b 45 ec             	mov    -0x14(%rbp),%eax
    1374:	89 ce                	mov    %ecx,%esi
    1376:	89 c7                	mov    %eax,%edi
    1378:	e8 00 00 00 00       	call   137d <fmax32+0x2d>
    137d:	89 45 fc             	mov    %eax,-0x4(%rbp)
/export/lustre-2/verify/work/hjm/RTPG/RTG/rpg_source/src/fplib/gs_fplib.cpp:332
    1380:	48 8b 45 d8          	mov    -0x28(%rbp),%rax
    1384:	c6 00 00             	movb   $0x0,(%rax)
/export/lustre-2/verify/work/hjm/RTPG/RTG/rpg_source/src/fplib/gs_fplib.cpp:333
    1387:	48 8b 45 d8          	mov    -0x28(%rbp),%rax
    138b:	0f b6 10             	movzbl (%rax),%edx
    138e:	0f b6 45 fb          	movzbl -0x5(%rbp),%eax
    1392:	09 c2                	or     %eax,%edx
    1394:	48 8b 45 d8          	mov    -0x28(%rbp),%rax
    1398:	88 10                	mov    %dl,(%rax)
/export/lustre-2/verify/work/hjm/RTPG/RTG/rpg_source/src/fplib/gs_fplib.cpp:335
    139a:	8b 45 fc             	mov    -0x4(%rbp),%eax
/export/lustre-2/verify/work/hjm/RTPG/RTG/rpg_source/src/fplib/gs_fplib.cpp:336
    139d:	c9                   	leave  
    139e:	c3                   	ret    

000000000000139f <fmax64>:
fmax64():
/export/lustre-2/verify/work/hjm/RTPG/RTG/rpg_source/src/fplib/gs_fplib.cpp:339
    139f:	55                   	push   %rbp
    13a0:	48 89 e5             	mov    %rsp,%rbp
    13a3:	48 83 ec 30          	sub    $0x30,%rsp
    13a7:	48 89 7d e8          	mov    %rdi,-0x18(%rbp)
    13ab:	48 89 75 e0          	mov    %rsi,-0x20(%rbp)
    13af:	89 c8                	mov    %ecx,%eax
    13b1:	4c 89 45 d0          	mov    %r8,-0x30(%rbp)
    13b5:	88 55 dc             	mov    %dl,-0x24(%rbp)
    13b8:	88 45 d8             	mov    %al,-0x28(%rbp)
/export/lustre-2/verify/work/hjm/RTPG/RTG/rpg_source/src/fplib/gs_fplib.cpp:341
    13bb:	48 8d 55 f7          	lea    -0x9(%rbp),%rdx
    13bf:	48 8b 4d e0          	mov    -0x20(%rbp),%rcx
    13c3:	48 8b 45 e8          	mov    -0x18(%rbp),%rax
    13c7:	48 89 ce             	mov    %rcx,%rsi
    13ca:	48 89 c7             	mov    %rax,%rdi
    13cd:	e8 00 00 00 00       	call   13d2 <fmax64+0x33>
    13d2:	48 89 45 f8          	mov    %rax,-0x8(%rbp)
/export/lustre-2/verify/work/hjm/RTPG/RTG/rpg_source/src/fplib/gs_fplib.cpp:345
    13d6:	48 8b 45 d0          	mov    -0x30(%rbp),%rax
    13da:	c6 00 00             	movb   $0x0,(%rax)
/export/lustre-2/verify/work/hjm/RTPG/RTG/rpg_source/src/fplib/gs_fplib.cpp:346
    13dd:	48 8b 45 d0          	mov    -0x30(%rbp),%rax
    13e1:	0f b6 10             	movzbl (%rax),%edx
    13e4:	0f b6 45 f7          	movzbl -0x9(%rbp),%eax
    13e8:	09 c2                	or     %eax,%edx
    13ea:	48 8b 45 d0          	mov    -0x30(%rbp),%rax
    13ee:	88 10                	mov    %dl,(%rax)
/export/lustre-2/verify/work/hjm/RTPG/RTG/rpg_source/src/fplib/gs_fplib.cpp:348
    13f0:	48 8b 45 f8          	mov    -0x8(%rbp),%rax
/export/lustre-2/verify/work/hjm/RTPG/RTG/rpg_source/src/fplib/gs_fplib.cpp:349
    13f4:	c9                   	leave  
    13f5:	c3                   	ret    

00000000000013f6 <fsub32>:
fsub32():
/export/lustre-2/verify/work/hjm/RTPG/RTG/rpg_source/src/fplib/gs_fplib.cpp:352
    13f6:	55                   	push   %rbp
    13f7:	48 89 e5             	mov    %rsp,%rbp
    13fa:	48 83 ec 30          	sub    $0x30,%rsp
    13fe:	89 7d ec             	mov    %edi,-0x14(%rbp)
    1401:	89 75 e8             	mov    %esi,-0x18(%rbp)
    1404:	89 c8                	mov    %ecx,%eax
    1406:	4c 89 45 d8          	mov    %r8,-0x28(%rbp)
    140a:	88 55 e4             	mov    %dl,-0x1c(%rbp)
    140d:	88 45 e0             	mov    %al,-0x20(%rbp)
/export/lustre-2/verify/work/hjm/RTPG/RTG/rpg_source/src/fplib/gs_fplib.cpp:354
    1410:	48 8d 55 fb          	lea    -0x5(%rbp),%rdx
    1414:	8b 4d e8             	mov    -0x18(%rbp),%ecx
    1417:	8b 45 ec             	mov    -0x14(%rbp),%eax
    141a:	89 ce                	mov    %ecx,%esi
    141c:	89 c7                	mov    %eax,%edi
    141e:	e8 00 00 00 00       	call   1423 <fsub32+0x2d>
    1423:	89 45 fc             	mov    %eax,-0x4(%rbp)
/export/lustre-2/verify/work/hjm/RTPG/RTG/rpg_source/src/fplib/gs_fplib.cpp:358
    1426:	48 8b 45 d8          	mov    -0x28(%rbp),%rax
    142a:	c6 00 00             	movb   $0x0,(%rax)
/export/lustre-2/verify/work/hjm/RTPG/RTG/rpg_source/src/fplib/gs_fplib.cpp:359
    142d:	48 8b 45 d8          	mov    -0x28(%rbp),%rax
    1431:	0f b6 10             	movzbl (%rax),%edx
    1434:	0f b6 45 fb          	movzbl -0x5(%rbp),%eax
    1438:	09 c2                	or     %eax,%edx
    143a:	48 8b 45 d8          	mov    -0x28(%rbp),%rax
    143e:	88 10                	mov    %dl,(%rax)
/export/lustre-2/verify/work/hjm/RTPG/RTG/rpg_source/src/fplib/gs_fplib.cpp:361
    1440:	8b 45 fc             	mov    -0x4(%rbp),%eax
/export/lustre-2/verify/work/hjm/RTPG/RTG/rpg_source/src/fplib/gs_fplib.cpp:362
    1443:	c9                   	leave  
    1444:	c3                   	ret    

0000000000001445 <fsub64>:
fsub64():
/export/lustre-2/verify/work/hjm/RTPG/RTG/rpg_source/src/fplib/gs_fplib.cpp:365
    1445:	55                   	push   %rbp
    1446:	48 89 e5             	mov    %rsp,%rbp
    1449:	48 83 ec 30          	sub    $0x30,%rsp
    144d:	48 89 7d e8          	mov    %rdi,-0x18(%rbp)
    1451:	48 89 75 e0          	mov    %rsi,-0x20(%rbp)
    1455:	89 c8                	mov    %ecx,%eax
    1457:	4c 89 45 d0          	mov    %r8,-0x30(%rbp)
    145b:	88 55 dc             	mov    %dl,-0x24(%rbp)
    145e:	88 45 d8             	mov    %al,-0x28(%rbp)
/export/lustre-2/verify/work/hjm/RTPG/RTG/rpg_source/src/fplib/gs_fplib.cpp:367
    1461:	48 8d 55 f7          	lea    -0x9(%rbp),%rdx
    1465:	48 8b 4d e0          	mov    -0x20(%rbp),%rcx
    1469:	48 8b 45 e8          	mov    -0x18(%rbp),%rax
    146d:	48 89 ce             	mov    %rcx,%rsi
    1470:	48 89 c7             	mov    %rax,%rdi
    1473:	e8 00 00 00 00       	call   1478 <fsub64+0x33>
    1478:	48 89 45 f8          	mov    %rax,-0x8(%rbp)
/export/lustre-2/verify/work/hjm/RTPG/RTG/rpg_source/src/fplib/gs_fplib.cpp:371
    147c:	48 8b 45 d0          	mov    -0x30(%rbp),%rax
    1480:	c6 00 00             	movb   $0x0,(%rax)
/export/lustre-2/verify/work/hjm/RTPG/RTG/rpg_source/src/fplib/gs_fplib.cpp:372
    1483:	48 8b 45 d0          	mov    -0x30(%rbp),%rax
    1487:	0f b6 10             	movzbl (%rax),%edx
    148a:	0f b6 45 f7          	movzbl -0x9(%rbp),%eax
    148e:	09 c2                	or     %eax,%edx
    1490:	48 8b 45 d0          	mov    -0x30(%rbp),%rax
    1494:	88 10                	mov    %dl,(%rax)
/export/lustre-2/verify/work/hjm/RTPG/RTG/rpg_source/src/fplib/gs_fplib.cpp:374
    1496:	48 8b 45 f8          	mov    -0x8(%rbp),%rax
/export/lustre-2/verify/work/hjm/RTPG/RTG/rpg_source/src/fplib/gs_fplib.cpp:375
    149a:	c9                   	leave  
    149b:	c3                   	ret    

000000000000149c <fadd32>:
fadd32():
/export/lustre-2/verify/work/hjm/RTPG/RTG/rpg_source/src/fplib/gs_fplib.cpp:378
    149c:	55                   	push   %rbp
    149d:	48 89 e5             	mov    %rsp,%rbp
    14a0:	48 83 ec 30          	sub    $0x30,%rsp
    14a4:	89 7d ec             	mov    %edi,-0x14(%rbp)
    14a7:	89 75 e8             	mov    %esi,-0x18(%rbp)
    14aa:	89 c8                	mov    %ecx,%eax
    14ac:	4c 89 45 d8          	mov    %r8,-0x28(%rbp)
    14b0:	88 55 e4             	mov    %dl,-0x1c(%rbp)
    14b3:	88 45 e0             	mov    %al,-0x20(%rbp)
/export/lustre-2/verify/work/hjm/RTPG/RTG/rpg_source/src/fplib/gs_fplib.cpp:380
    14b6:	48 8d 55 fb          	lea    -0x5(%rbp),%rdx
    14ba:	8b 4d e8             	mov    -0x18(%rbp),%ecx
    14bd:	8b 45 ec             	mov    -0x14(%rbp),%eax
    14c0:	89 ce                	mov    %ecx,%esi
    14c2:	89 c7                	mov    %eax,%edi
    14c4:	e8 00 00 00 00       	call   14c9 <fadd32+0x2d>
    14c9:	89 45 fc             	mov    %eax,-0x4(%rbp)
/export/lustre-2/verify/work/hjm/RTPG/RTG/rpg_source/src/fplib/gs_fplib.cpp:384
    14cc:	48 8b 45 d8          	mov    -0x28(%rbp),%rax
    14d0:	c6 00 00             	movb   $0x0,(%rax)
/export/lustre-2/verify/work/hjm/RTPG/RTG/rpg_source/src/fplib/gs_fplib.cpp:385
    14d3:	48 8b 45 d8          	mov    -0x28(%rbp),%rax
    14d7:	0f b6 10             	movzbl (%rax),%edx
    14da:	0f b6 45 fb          	movzbl -0x5(%rbp),%eax
    14de:	09 c2                	or     %eax,%edx
    14e0:	48 8b 45 d8          	mov    -0x28(%rbp),%rax
    14e4:	88 10                	mov    %dl,(%rax)
/export/lustre-2/verify/work/hjm/RTPG/RTG/rpg_source/src/fplib/gs_fplib.cpp:387
    14e6:	8b 45 fc             	mov    -0x4(%rbp),%eax
/export/lustre-2/verify/work/hjm/RTPG/RTG/rpg_source/src/fplib/gs_fplib.cpp:388
    14e9:	c9                   	leave  
    14ea:	c3                   	ret    

00000000000014eb <vfcvt_fp16_to_fp32>:
vfcvt_fp16_to_fp32():
/export/lustre-2/verify/work/hjm/RTPG/RTG/rpg_source/src/fplib/gs_fplib.cpp:391
    14eb:	55                   	push   %rbp
    14ec:	48 89 e5             	mov    %rsp,%rbp
    14ef:	48 83 ec 30          	sub    $0x30,%rsp
    14f3:	89 d0                	mov    %edx,%eax
    14f5:	48 89 4d d8          	mov    %rcx,-0x28(%rbp)
    14f9:	44 89 c2             	mov    %r8d,%edx
    14fc:	66 89 7d ec          	mov    %di,-0x14(%rbp)
    1500:	40 88 75 e8          	mov    %sil,-0x18(%rbp)
    1504:	88 45 e4             	mov    %al,-0x1c(%rbp)
    1507:	88 55 e0             	mov    %dl,-0x20(%rbp)
/export/lustre-2/verify/work/hjm/RTPG/RTG/rpg_source/src/fplib/gs_fplib.cpp:392
    150a:	0f b6 45 e0          	movzbl -0x20(%rbp),%eax
    150e:	89 c7                	mov    %eax,%edi
    1510:	e8 00 00 00 00       	call   1515 <vfcvt_fp16_to_fp32+0x2a>
/export/lustre-2/verify/work/hjm/RTPG/RTG/rpg_source/src/fplib/gs_fplib.cpp:394
    1515:	0f b7 45 ec          	movzwl -0x14(%rbp),%eax
    1519:	48 8d 55 f7          	lea    -0x9(%rbp),%rdx
    151d:	48 89 d6             	mov    %rdx,%rsi
    1520:	89 c7                	mov    %eax,%edi
    1522:	e8 00 00 00 00       	call   1527 <vfcvt_fp16_to_fp32+0x3c>
    1527:	48 89 45 f8          	mov    %rax,-0x8(%rbp)
/export/lustre-2/verify/work/hjm/RTPG/RTG/rpg_source/src/fplib/gs_fplib.cpp:398
    152b:	48 8b 45 d8          	mov    -0x28(%rbp),%rax
    152f:	c6 00 00             	movb   $0x0,(%rax)
/export/lustre-2/verify/work/hjm/RTPG/RTG/rpg_source/src/fplib/gs_fplib.cpp:399
    1532:	48 8b 45 d8          	mov    -0x28(%rbp),%rax
    1536:	0f b6 10             	movzbl (%rax),%edx
    1539:	0f b6 45 f7          	movzbl -0x9(%rbp),%eax
    153d:	09 c2                	or     %eax,%edx
    153f:	48 8b 45 d8          	mov    -0x28(%rbp),%rax
    1543:	88 10                	mov    %dl,(%rax)
/export/lustre-2/verify/work/hjm/RTPG/RTG/rpg_source/src/fplib/gs_fplib.cpp:400
    1545:	48 8b 45 f8          	mov    -0x8(%rbp),%rax
/export/lustre-2/verify/work/hjm/RTPG/RTG/rpg_source/src/fplib/gs_fplib.cpp:401
    1549:	c9                   	leave  
    154a:	c3                   	ret    

000000000000154b <vfcvt_fp32_to_fp16>:
vfcvt_fp32_to_fp16():
/export/lustre-2/verify/work/hjm/RTPG/RTG/rpg_source/src/fplib/gs_fplib.cpp:404
    154b:	55                   	push   %rbp
    154c:	48 89 e5             	mov    %rsp,%rbp
    154f:	48 83 ec 40          	sub    $0x40,%rsp
    1553:	89 7d ec             	mov    %edi,-0x14(%rbp)
    1556:	89 75 e8             	mov    %esi,-0x18(%rbp)
    1559:	48 89 55 e0          	mov    %rdx,-0x20(%rbp)
    155d:	48 89 4d d8          	mov    %rcx,-0x28(%rbp)
    1561:	44 89 c1             	mov    %r8d,%ecx
    1564:	44 89 ca             	mov    %r9d,%edx
    1567:	8b 45 18             	mov    0x18(%rbp),%eax
    156a:	88 4d d4             	mov    %cl,-0x2c(%rbp)
    156d:	88 55 d0             	mov    %dl,-0x30(%rbp)
    1570:	88 45 cc             	mov    %al,-0x34(%rbp)
/export/lustre-2/verify/work/hjm/RTPG/RTG/rpg_source/src/fplib/gs_fplib.cpp:405
    1573:	0f b6 45 cc          	movzbl -0x34(%rbp),%eax
    1577:	89 c7                	mov    %eax,%edi
    1579:	e8 00 00 00 00       	call   157e <vfcvt_fp32_to_fp16+0x33>
/export/lustre-2/verify/work/hjm/RTPG/RTG/rpg_source/src/fplib/gs_fplib.cpp:407
    157e:	48 8d 55 ff          	lea    -0x1(%rbp),%rdx
    1582:	8b 45 ec             	mov    -0x14(%rbp),%eax
    1585:	48 89 d6             	mov    %rdx,%rsi
    1588:	89 c7                	mov    %eax,%edi
    158a:	e8 00 00 00 00       	call   158f <vfcvt_fp32_to_fp16+0x44>
    158f:	89 c2                	mov    %eax,%edx
    1591:	48 8b 45 e0          	mov    -0x20(%rbp),%rax
    1595:	48 89 10             	mov    %rdx,(%rax)
/export/lustre-2/verify/work/hjm/RTPG/RTG/rpg_source/src/fplib/gs_fplib.cpp:411
    1598:	48 8b 45 10          	mov    0x10(%rbp),%rax
    159c:	c6 00 00             	movb   $0x0,(%rax)
/export/lustre-2/verify/work/hjm/RTPG/RTG/rpg_source/src/fplib/gs_fplib.cpp:412
    159f:	48 8b 45 10          	mov    0x10(%rbp),%rax
    15a3:	0f b6 10             	movzbl (%rax),%edx
    15a6:	0f b6 45 ff          	movzbl -0x1(%rbp),%eax
    15aa:	09 c2                	or     %eax,%edx
    15ac:	48 8b 45 10          	mov    0x10(%rbp),%rax
    15b0:	88 10                	mov    %dl,(%rax)
/export/lustre-2/verify/work/hjm/RTPG/RTG/rpg_source/src/fplib/gs_fplib.cpp:414
    15b2:	48 8d 55 ff          	lea    -0x1(%rbp),%rdx
    15b6:	8b 45 e8             	mov    -0x18(%rbp),%eax
    15b9:	48 89 d6             	mov    %rdx,%rsi
    15bc:	89 c7                	mov    %eax,%edi
    15be:	e8 00 00 00 00       	call   15c3 <vfcvt_fp32_to_fp16+0x78>
    15c3:	89 c2                	mov    %eax,%edx
    15c5:	48 8b 45 d8          	mov    -0x28(%rbp),%rax
    15c9:	48 89 10             	mov    %rdx,(%rax)
/export/lustre-2/verify/work/hjm/RTPG/RTG/rpg_source/src/fplib/gs_fplib.cpp:415
    15cc:	48 8b 45 10          	mov    0x10(%rbp),%rax
    15d0:	0f b6 10             	movzbl (%rax),%edx
    15d3:	0f b6 45 ff          	movzbl -0x1(%rbp),%eax
    15d7:	09 c2                	or     %eax,%edx
    15d9:	48 8b 45 10          	mov    0x10(%rbp),%rax
    15dd:	88 10                	mov    %dl,(%rax)
/export/lustre-2/verify/work/hjm/RTPG/RTG/rpg_source/src/fplib/gs_fplib.cpp:416
    15df:	b8 00 00 00 00       	mov    $0x0,%eax
/export/lustre-2/verify/work/hjm/RTPG/RTG/rpg_source/src/fplib/gs_fplib.cpp:417
    15e4:	c9                   	leave  
    15e5:	c3                   	ret    

00000000000015e6 <vfcvt_fp64_to_fp32>:
vfcvt_fp64_to_fp32():
/export/lustre-2/verify/work/hjm/RTPG/RTG/rpg_source/src/fplib/gs_fplib.cpp:420
    15e6:	55                   	push   %rbp
    15e7:	48 89 e5             	mov    %rsp,%rbp
    15ea:	48 83 ec 40          	sub    $0x40,%rsp
    15ee:	48 89 7d e8          	mov    %rdi,-0x18(%rbp)
    15f2:	48 89 75 e0          	mov    %rsi,-0x20(%rbp)
    15f6:	48 89 55 d8          	mov    %rdx,-0x28(%rbp)
    15fa:	48 89 4d d0          	mov    %rcx,-0x30(%rbp)
    15fe:	44 89 c1             	mov    %r8d,%ecx
    1601:	44 89 ca             	mov    %r9d,%edx
    1604:	8b 45 18             	mov    0x18(%rbp),%eax
    1607:	88 4d cc             	mov    %cl,-0x34(%rbp)
    160a:	88 55 c8             	mov    %dl,-0x38(%rbp)
    160d:	88 45 c4             	mov    %al,-0x3c(%rbp)
/export/lustre-2/verify/work/hjm/RTPG/RTG/rpg_source/src/fplib/gs_fplib.cpp:421
    1610:	0f b6 45 c4          	movzbl -0x3c(%rbp),%eax
    1614:	89 c7                	mov    %eax,%edi
    1616:	e8 00 00 00 00       	call   161b <vfcvt_fp64_to_fp32+0x35>
/export/lustre-2/verify/work/hjm/RTPG/RTG/rpg_source/src/fplib/gs_fplib.cpp:423
    161b:	48 8d 55 ff          	lea    -0x1(%rbp),%rdx
    161f:	48 8b 45 e8          	mov    -0x18(%rbp),%rax
    1623:	48 89 d6             	mov    %rdx,%rsi
    1626:	48 89 c7             	mov    %rax,%rdi
    1629:	e8 00 00 00 00       	call   162e <vfcvt_fp64_to_fp32+0x48>
    162e:	89 c2                	mov    %eax,%edx
    1630:	48 8b 45 d8          	mov    -0x28(%rbp),%rax
    1634:	48 89 10             	mov    %rdx,(%rax)
/export/lustre-2/verify/work/hjm/RTPG/RTG/rpg_source/src/fplib/gs_fplib.cpp:427
    1637:	48 8b 45 10          	mov    0x10(%rbp),%rax
    163b:	c6 00 00             	movb   $0x0,(%rax)
/export/lustre-2/verify/work/hjm/RTPG/RTG/rpg_source/src/fplib/gs_fplib.cpp:428
    163e:	48 8b 45 10          	mov    0x10(%rbp),%rax
    1642:	0f b6 10             	movzbl (%rax),%edx
    1645:	0f b6 45 ff          	movzbl -0x1(%rbp),%eax
    1649:	09 c2                	or     %eax,%edx
    164b:	48 8b 45 10          	mov    0x10(%rbp),%rax
    164f:	88 10                	mov    %dl,(%rax)
/export/lustre-2/verify/work/hjm/RTPG/RTG/rpg_source/src/fplib/gs_fplib.cpp:431
    1651:	48 8d 55 ff          	lea    -0x1(%rbp),%rdx
    1655:	48 8b 45 e0          	mov    -0x20(%rbp),%rax
    1659:	48 89 d6             	mov    %rdx,%rsi
    165c:	48 89 c7             	mov    %rax,%rdi
    165f:	e8 00 00 00 00       	call   1664 <vfcvt_fp64_to_fp32+0x7e>
    1664:	89 c2                	mov    %eax,%edx
    1666:	48 8b 45 d0          	mov    -0x30(%rbp),%rax
    166a:	48 89 10             	mov    %rdx,(%rax)
/export/lustre-2/verify/work/hjm/RTPG/RTG/rpg_source/src/fplib/gs_fplib.cpp:432
    166d:	48 8b 45 10          	mov    0x10(%rbp),%rax
    1671:	0f b6 10             	movzbl (%rax),%edx
    1674:	0f b6 45 ff          	movzbl -0x1(%rbp),%eax
    1678:	09 c2                	or     %eax,%edx
    167a:	48 8b 45 10          	mov    0x10(%rbp),%rax
    167e:	88 10                	mov    %dl,(%rax)
/export/lustre-2/verify/work/hjm/RTPG/RTG/rpg_source/src/fplib/gs_fplib.cpp:434
    1680:	b8 00 00 00 00       	mov    $0x0,%eax
/export/lustre-2/verify/work/hjm/RTPG/RTG/rpg_source/src/fplib/gs_fplib.cpp:435
    1685:	c9                   	leave  
    1686:	c3                   	ret    

0000000000001687 <vfneg_mul_sub32>:
vfneg_mul_sub32():
/export/lustre-2/verify/work/hjm/RTPG/RTG/rpg_source/src/fplib/gs_fplib.cpp:438
    1687:	55                   	push   %rbp
    1688:	48 89 e5             	mov    %rsp,%rbp
    168b:	48 83 ec 30          	sub    $0x30,%rsp
    168f:	89 7d ec             	mov    %edi,-0x14(%rbp)
    1692:	89 75 e8             	mov    %esi,-0x18(%rbp)
    1695:	89 55 e4             	mov    %edx,-0x1c(%rbp)
    1698:	89 ca                	mov    %ecx,%edx
    169a:	44 89 c1             	mov    %r8d,%ecx
    169d:	4c 89 4d d0          	mov    %r9,-0x30(%rbp)
    16a1:	8b 45 10             	mov    0x10(%rbp),%eax
    16a4:	88 55 e0             	mov    %dl,-0x20(%rbp)
    16a7:	88 4d dc             	mov    %cl,-0x24(%rbp)
    16aa:	88 45 d8             	mov    %al,-0x28(%rbp)
/export/lustre-2/verify/work/hjm/RTPG/RTG/rpg_source/src/fplib/gs_fplib.cpp:439
    16ad:	0f b6 45 d8          	movzbl -0x28(%rbp),%eax
    16b1:	89 c7                	mov    %eax,%edi
    16b3:	e8 00 00 00 00       	call   16b8 <vfneg_mul_sub32+0x31>
/export/lustre-2/verify/work/hjm/RTPG/RTG/rpg_source/src/fplib/gs_fplib.cpp:441
    16b8:	48 8d 4d fa          	lea    -0x6(%rbp),%rcx
    16bc:	8b 55 e4             	mov    -0x1c(%rbp),%edx
    16bf:	8b 75 e8             	mov    -0x18(%rbp),%esi
    16c2:	8b 45 ec             	mov    -0x14(%rbp),%eax
    16c5:	89 c7                	mov    %eax,%edi
    16c7:	e8 00 00 00 00       	call   16cc <vfneg_mul_sub32+0x45>
    16cc:	89 45 fc             	mov    %eax,-0x4(%rbp)
/export/lustre-2/verify/work/hjm/RTPG/RTG/rpg_source/src/fplib/gs_fplib.cpp:445
    16cf:	48 8b 45 d0          	mov    -0x30(%rbp),%rax
    16d3:	c6 00 00             	movb   $0x0,(%rax)
/export/lustre-2/verify/work/hjm/RTPG/RTG/rpg_source/src/fplib/gs_fplib.cpp:446
    16d6:	48 8b 45 d0          	mov    -0x30(%rbp),%rax
    16da:	0f b6 10             	movzbl (%rax),%edx
    16dd:	0f b6 45 fa          	movzbl -0x6(%rbp),%eax
    16e1:	09 c2                	or     %eax,%edx
    16e3:	48 8b 45 d0          	mov    -0x30(%rbp),%rax
    16e7:	88 10                	mov    %dl,(%rax)
/export/lustre-2/verify/work/hjm/RTPG/RTG/rpg_source/src/fplib/gs_fplib.cpp:448
    16e9:	8b 45 fc             	mov    -0x4(%rbp),%eax
    16ec:	89 c7                	mov    %eax,%edi
    16ee:	e8 00 00 00 00       	call   16f3 <vfneg_mul_sub32+0x6c>
    16f3:	84 c0                	test   %al,%al
    16f5:	75 0e                	jne    1705 <vfneg_mul_sub32+0x7e>
/export/lustre-2/verify/work/hjm/RTPG/RTG/rpg_source/src/fplib/gs_fplib.cpp:448 (discriminator 3)
    16f7:	8b 45 fc             	mov    -0x4(%rbp),%eax
    16fa:	89 c7                	mov    %eax,%edi
    16fc:	e8 00 00 00 00       	call   1701 <vfneg_mul_sub32+0x7a>
    1701:	84 c0                	test   %al,%al
    1703:	74 07                	je     170c <vfneg_mul_sub32+0x85>
/export/lustre-2/verify/work/hjm/RTPG/RTG/rpg_source/src/fplib/gs_fplib.cpp:448 (discriminator 5)
    1705:	b8 01 00 00 00       	mov    $0x1,%eax
    170a:	eb 05                	jmp    1711 <vfneg_mul_sub32+0x8a>
/export/lustre-2/verify/work/hjm/RTPG/RTG/rpg_source/src/fplib/gs_fplib.cpp:448 (discriminator 6)
    170c:	b8 00 00 00 00       	mov    $0x0,%eax
/export/lustre-2/verify/work/hjm/RTPG/RTG/rpg_source/src/fplib/gs_fplib.cpp:448 (discriminator 8)
    1711:	84 c0                	test   %al,%al
    1713:	74 05                	je     171a <vfneg_mul_sub32+0x93>
/export/lustre-2/verify/work/hjm/RTPG/RTG/rpg_source/src/fplib/gs_fplib.cpp:449
    1715:	8b 45 fc             	mov    -0x4(%rbp),%eax
    1718:	eb 23                	jmp    173d <vfneg_mul_sub32+0xb6>
/export/lustre-2/verify/work/hjm/RTPG/RTG/rpg_source/src/fplib/gs_fplib.cpp:451
    171a:	8b 45 fc             	mov    -0x4(%rbp),%eax
    171d:	c1 e8 1f             	shr    $0x1f,%eax
    1720:	88 45 fb             	mov    %al,-0x5(%rbp)
/export/lustre-2/verify/work/hjm/RTPG/RTG/rpg_source/src/fplib/gs_fplib.cpp:452
    1723:	81 65 fc ff ff ff 7f 	andl   $0x7fffffff,-0x4(%rbp)
/export/lustre-2/verify/work/hjm/RTPG/RTG/rpg_source/src/fplib/gs_fplib.cpp:453
    172a:	80 7d fb 00          	cmpb   $0x0,-0x5(%rbp)
    172e:	74 05                	je     1735 <vfneg_mul_sub32+0xae>
/export/lustre-2/verify/work/hjm/RTPG/RTG/rpg_source/src/fplib/gs_fplib.cpp:453 (discriminator 1)
    1730:	8b 45 fc             	mov    -0x4(%rbp),%eax
    1733:	eb 08                	jmp    173d <vfneg_mul_sub32+0xb6>
/export/lustre-2/verify/work/hjm/RTPG/RTG/rpg_source/src/fplib/gs_fplib.cpp:453 (discriminator 2)
    1735:	8b 45 fc             	mov    -0x4(%rbp),%eax
    1738:	0d 00 00 00 80       	or     $0x80000000,%eax
/export/lustre-2/verify/work/hjm/RTPG/RTG/rpg_source/src/fplib/gs_fplib.cpp:455 (discriminator 1)
    173d:	c9                   	leave  
    173e:	c3                   	ret    

000000000000173f <vfneg_mul_sub64>:
vfneg_mul_sub64():
/export/lustre-2/verify/work/hjm/RTPG/RTG/rpg_source/src/fplib/gs_fplib.cpp:458
    173f:	55                   	push   %rbp
    1740:	48 89 e5             	mov    %rsp,%rbp
    1743:	48 83 ec 40          	sub    $0x40,%rsp
    1747:	48 89 7d e8          	mov    %rdi,-0x18(%rbp)
    174b:	48 89 75 e0          	mov    %rsi,-0x20(%rbp)
    174f:	48 89 55 d8          	mov    %rdx,-0x28(%rbp)
    1753:	89 ca                	mov    %ecx,%edx
    1755:	44 89 c1             	mov    %r8d,%ecx
    1758:	4c 89 4d c8          	mov    %r9,-0x38(%rbp)
    175c:	8b 45 10             	mov    0x10(%rbp),%eax
    175f:	88 55 d4             	mov    %dl,-0x2c(%rbp)
    1762:	88 4d d0             	mov    %cl,-0x30(%rbp)
    1765:	88 45 c4             	mov    %al,-0x3c(%rbp)
/export/lustre-2/verify/work/hjm/RTPG/RTG/rpg_source/src/fplib/gs_fplib.cpp:459
    1768:	0f b6 45 c4          	movzbl -0x3c(%rbp),%eax
    176c:	89 c7                	mov    %eax,%edi
    176e:	e8 00 00 00 00       	call   1773 <vfneg_mul_sub64+0x34>
/export/lustre-2/verify/work/hjm/RTPG/RTG/rpg_source/src/fplib/gs_fplib.cpp:461
    1773:	48 8d 4d f6          	lea    -0xa(%rbp),%rcx
    1777:	48 8b 55 d8          	mov    -0x28(%rbp),%rdx
    177b:	48 8b 75 e0          	mov    -0x20(%rbp),%rsi
    177f:	48 8b 45 e8          	mov    -0x18(%rbp),%rax
    1783:	48 89 c7             	mov    %rax,%rdi
    1786:	e8 00 00 00 00       	call   178b <vfneg_mul_sub64+0x4c>
    178b:	48 89 45 f8          	mov    %rax,-0x8(%rbp)
/export/lustre-2/verify/work/hjm/RTPG/RTG/rpg_source/src/fplib/gs_fplib.cpp:465
    178f:	48 8b 45 c8          	mov    -0x38(%rbp),%rax
    1793:	c6 00 00             	movb   $0x0,(%rax)
/export/lustre-2/verify/work/hjm/RTPG/RTG/rpg_source/src/fplib/gs_fplib.cpp:466
    1796:	48 8b 45 c8          	mov    -0x38(%rbp),%rax
    179a:	0f b6 10             	movzbl (%rax),%edx
    179d:	0f b6 45 f6          	movzbl -0xa(%rbp),%eax
    17a1:	09 c2                	or     %eax,%edx
    17a3:	48 8b 45 c8          	mov    -0x38(%rbp),%rax
    17a7:	88 10                	mov    %dl,(%rax)
/export/lustre-2/verify/work/hjm/RTPG/RTG/rpg_source/src/fplib/gs_fplib.cpp:468
    17a9:	48 8b 45 f8          	mov    -0x8(%rbp),%rax
    17ad:	48 89 c7             	mov    %rax,%rdi
    17b0:	e8 00 00 00 00       	call   17b5 <vfneg_mul_sub64+0x76>
    17b5:	84 c0                	test   %al,%al
    17b7:	75 10                	jne    17c9 <vfneg_mul_sub64+0x8a>
/export/lustre-2/verify/work/hjm/RTPG/RTG/rpg_source/src/fplib/gs_fplib.cpp:468 (discriminator 3)
    17b9:	48 8b 45 f8          	mov    -0x8(%rbp),%rax
    17bd:	48 89 c7             	mov    %rax,%rdi
    17c0:	e8 00 00 00 00       	call   17c5 <vfneg_mul_sub64+0x86>
    17c5:	84 c0                	test   %al,%al
    17c7:	74 07                	je     17d0 <vfneg_mul_sub64+0x91>
/export/lustre-2/verify/work/hjm/RTPG/RTG/rpg_source/src/fplib/gs_fplib.cpp:468 (discriminator 5)
    17c9:	b8 01 00 00 00       	mov    $0x1,%eax
    17ce:	eb 05                	jmp    17d5 <vfneg_mul_sub64+0x96>
/export/lustre-2/verify/work/hjm/RTPG/RTG/rpg_source/src/fplib/gs_fplib.cpp:468 (discriminator 6)
    17d0:	b8 00 00 00 00       	mov    $0x0,%eax
/export/lustre-2/verify/work/hjm/RTPG/RTG/rpg_source/src/fplib/gs_fplib.cpp:468 (discriminator 8)
    17d5:	84 c0                	test   %al,%al
    17d7:	74 06                	je     17df <vfneg_mul_sub64+0xa0>
/export/lustre-2/verify/work/hjm/RTPG/RTG/rpg_source/src/fplib/gs_fplib.cpp:469
    17d9:	48 8b 45 f8          	mov    -0x8(%rbp),%rax
    17dd:	eb 33                	jmp    1812 <vfneg_mul_sub64+0xd3>
/export/lustre-2/verify/work/hjm/RTPG/RTG/rpg_source/src/fplib/gs_fplib.cpp:471
    17df:	48 8b 45 f8          	mov    -0x8(%rbp),%rax
    17e3:	48 c1 e8 3f          	shr    $0x3f,%rax
    17e7:	88 45 f7             	mov    %al,-0x9(%rbp)
/export/lustre-2/verify/work/hjm/RTPG/RTG/rpg_source/src/fplib/gs_fplib.cpp:472
    17ea:	48 b8 ff ff ff ff ff 	movabs $0x7fffffffffffffff,%rax
    17f1:	ff ff 7f 
    17f4:	48 21 45 f8          	and    %rax,-0x8(%rbp)
/export/lustre-2/verify/work/hjm/RTPG/RTG/rpg_source/src/fplib/gs_fplib.cpp:473
    17f8:	80 7d f7 00          	cmpb   $0x0,-0x9(%rbp)
    17fc:	74 06                	je     1804 <vfneg_mul_sub64+0xc5>
/export/lustre-2/verify/work/hjm/RTPG/RTG/rpg_source/src/fplib/gs_fplib.cpp:473 (discriminator 1)
    17fe:	48 8b 45 f8          	mov    -0x8(%rbp),%rax
    1802:	eb 0e                	jmp    1812 <vfneg_mul_sub64+0xd3>
/export/lustre-2/verify/work/hjm/RTPG/RTG/rpg_source/src/fplib/gs_fplib.cpp:473 (discriminator 2)
    1804:	48 b8 00 00 00 00 00 	movabs $0x8000000000000000,%rax
    180b:	00 00 80 
    180e:	48 0b 45 f8          	or     -0x8(%rbp),%rax
/export/lustre-2/verify/work/hjm/RTPG/RTG/rpg_source/src/fplib/gs_fplib.cpp:475 (discriminator 1)
    1812:	c9                   	leave  
    1813:	c3                   	ret    

0000000000001814 <vfneg_mul_add32>:
vfneg_mul_add32():
/export/lustre-2/verify/work/hjm/RTPG/RTG/rpg_source/src/fplib/gs_fplib.cpp:477
    1814:	55                   	push   %rbp
    1815:	48 89 e5             	mov    %rsp,%rbp
    1818:	48 83 ec 30          	sub    $0x30,%rsp
    181c:	89 7d ec             	mov    %edi,-0x14(%rbp)
    181f:	89 75 e8             	mov    %esi,-0x18(%rbp)
    1822:	89 55 e4             	mov    %edx,-0x1c(%rbp)
    1825:	89 ca                	mov    %ecx,%edx
    1827:	44 89 c1             	mov    %r8d,%ecx
    182a:	4c 89 4d d0          	mov    %r9,-0x30(%rbp)
    182e:	8b 45 10             	mov    0x10(%rbp),%eax
    1831:	88 55 e0             	mov    %dl,-0x20(%rbp)
    1834:	88 4d dc             	mov    %cl,-0x24(%rbp)
    1837:	88 45 d8             	mov    %al,-0x28(%rbp)
/export/lustre-2/verify/work/hjm/RTPG/RTG/rpg_source/src/fplib/gs_fplib.cpp:478
    183a:	0f b6 45 d8          	movzbl -0x28(%rbp),%eax
    183e:	89 c7                	mov    %eax,%edi
    1840:	e8 00 00 00 00       	call   1845 <vfneg_mul_add32+0x31>
/export/lustre-2/verify/work/hjm/RTPG/RTG/rpg_source/src/fplib/gs_fplib.cpp:480
    1845:	48 8d 4d fa          	lea    -0x6(%rbp),%rcx
    1849:	8b 55 e4             	mov    -0x1c(%rbp),%edx
    184c:	8b 75 e8             	mov    -0x18(%rbp),%esi
    184f:	8b 45 ec             	mov    -0x14(%rbp),%eax
    1852:	89 c7                	mov    %eax,%edi
    1854:	e8 00 00 00 00       	call   1859 <vfneg_mul_add32+0x45>
    1859:	89 45 fc             	mov    %eax,-0x4(%rbp)
/export/lustre-2/verify/work/hjm/RTPG/RTG/rpg_source/src/fplib/gs_fplib.cpp:484
    185c:	48 8b 45 d0          	mov    -0x30(%rbp),%rax
    1860:	c6 00 00             	movb   $0x0,(%rax)
/export/lustre-2/verify/work/hjm/RTPG/RTG/rpg_source/src/fplib/gs_fplib.cpp:485
    1863:	48 8b 45 d0          	mov    -0x30(%rbp),%rax
    1867:	0f b6 10             	movzbl (%rax),%edx
    186a:	0f b6 45 fa          	movzbl -0x6(%rbp),%eax
    186e:	09 c2                	or     %eax,%edx
    1870:	48 8b 45 d0          	mov    -0x30(%rbp),%rax
    1874:	88 10                	mov    %dl,(%rax)
/export/lustre-2/verify/work/hjm/RTPG/RTG/rpg_source/src/fplib/gs_fplib.cpp:487
    1876:	8b 45 fc             	mov    -0x4(%rbp),%eax
    1879:	89 c7                	mov    %eax,%edi
    187b:	e8 00 00 00 00       	call   1880 <vfneg_mul_add32+0x6c>
    1880:	84 c0                	test   %al,%al
    1882:	75 0e                	jne    1892 <vfneg_mul_add32+0x7e>
/export/lustre-2/verify/work/hjm/RTPG/RTG/rpg_source/src/fplib/gs_fplib.cpp:487 (discriminator 3)
    1884:	8b 45 fc             	mov    -0x4(%rbp),%eax
    1887:	89 c7                	mov    %eax,%edi
    1889:	e8 00 00 00 00       	call   188e <vfneg_mul_add32+0x7a>
    188e:	84 c0                	test   %al,%al
    1890:	74 07                	je     1899 <vfneg_mul_add32+0x85>
/export/lustre-2/verify/work/hjm/RTPG/RTG/rpg_source/src/fplib/gs_fplib.cpp:487 (discriminator 5)
    1892:	b8 01 00 00 00       	mov    $0x1,%eax
    1897:	eb 05                	jmp    189e <vfneg_mul_add32+0x8a>
/export/lustre-2/verify/work/hjm/RTPG/RTG/rpg_source/src/fplib/gs_fplib.cpp:487 (discriminator 6)
    1899:	b8 00 00 00 00       	mov    $0x0,%eax
/export/lustre-2/verify/work/hjm/RTPG/RTG/rpg_source/src/fplib/gs_fplib.cpp:487 (discriminator 8)
    189e:	84 c0                	test   %al,%al
    18a0:	74 05                	je     18a7 <vfneg_mul_add32+0x93>
/export/lustre-2/verify/work/hjm/RTPG/RTG/rpg_source/src/fplib/gs_fplib.cpp:488
    18a2:	8b 45 fc             	mov    -0x4(%rbp),%eax
    18a5:	eb 23                	jmp    18ca <vfneg_mul_add32+0xb6>
/export/lustre-2/verify/work/hjm/RTPG/RTG/rpg_source/src/fplib/gs_fplib.cpp:490
    18a7:	8b 45 fc             	mov    -0x4(%rbp),%eax
    18aa:	c1 e8 1f             	shr    $0x1f,%eax
    18ad:	88 45 fb             	mov    %al,-0x5(%rbp)
/export/lustre-2/verify/work/hjm/RTPG/RTG/rpg_source/src/fplib/gs_fplib.cpp:491
    18b0:	81 65 fc ff ff ff 7f 	andl   $0x7fffffff,-0x4(%rbp)
/export/lustre-2/verify/work/hjm/RTPG/RTG/rpg_source/src/fplib/gs_fplib.cpp:492
    18b7:	80 7d fb 00          	cmpb   $0x0,-0x5(%rbp)
    18bb:	74 05                	je     18c2 <vfneg_mul_add32+0xae>
/export/lustre-2/verify/work/hjm/RTPG/RTG/rpg_source/src/fplib/gs_fplib.cpp:492 (discriminator 1)
    18bd:	8b 45 fc             	mov    -0x4(%rbp),%eax
    18c0:	eb 08                	jmp    18ca <vfneg_mul_add32+0xb6>
/export/lustre-2/verify/work/hjm/RTPG/RTG/rpg_source/src/fplib/gs_fplib.cpp:492 (discriminator 2)
    18c2:	8b 45 fc             	mov    -0x4(%rbp),%eax
    18c5:	0d 00 00 00 80       	or     $0x80000000,%eax
/export/lustre-2/verify/work/hjm/RTPG/RTG/rpg_source/src/fplib/gs_fplib.cpp:494 (discriminator 1)
    18ca:	c9                   	leave  
    18cb:	c3                   	ret    

00000000000018cc <vfneg_mul_add64>:
vfneg_mul_add64():
/export/lustre-2/verify/work/hjm/RTPG/RTG/rpg_source/src/fplib/gs_fplib.cpp:496
    18cc:	55                   	push   %rbp
    18cd:	48 89 e5             	mov    %rsp,%rbp
    18d0:	48 83 ec 40          	sub    $0x40,%rsp
    18d4:	48 89 7d e8          	mov    %rdi,-0x18(%rbp)
    18d8:	48 89 75 e0          	mov    %rsi,-0x20(%rbp)
    18dc:	48 89 55 d8          	mov    %rdx,-0x28(%rbp)
    18e0:	89 ca                	mov    %ecx,%edx
    18e2:	44 89 c1             	mov    %r8d,%ecx
    18e5:	4c 89 4d c8          	mov    %r9,-0x38(%rbp)
    18e9:	8b 45 10             	mov    0x10(%rbp),%eax
    18ec:	88 55 d4             	mov    %dl,-0x2c(%rbp)
    18ef:	88 4d d0             	mov    %cl,-0x30(%rbp)
    18f2:	88 45 c4             	mov    %al,-0x3c(%rbp)
/export/lustre-2/verify/work/hjm/RTPG/RTG/rpg_source/src/fplib/gs_fplib.cpp:497
    18f5:	0f b6 45 c4          	movzbl -0x3c(%rbp),%eax
    18f9:	89 c7                	mov    %eax,%edi
    18fb:	e8 00 00 00 00       	call   1900 <vfneg_mul_add64+0x34>
/export/lustre-2/verify/work/hjm/RTPG/RTG/rpg_source/src/fplib/gs_fplib.cpp:499
    1900:	48 8d 4d f6          	lea    -0xa(%rbp),%rcx
    1904:	48 8b 55 d8          	mov    -0x28(%rbp),%rdx
    1908:	48 8b 75 e0          	mov    -0x20(%rbp),%rsi
    190c:	48 8b 45 e8          	mov    -0x18(%rbp),%rax
    1910:	48 89 c7             	mov    %rax,%rdi
    1913:	e8 00 00 00 00       	call   1918 <vfneg_mul_add64+0x4c>
    1918:	48 89 45 f8          	mov    %rax,-0x8(%rbp)
/export/lustre-2/verify/work/hjm/RTPG/RTG/rpg_source/src/fplib/gs_fplib.cpp:503
    191c:	48 8b 45 c8          	mov    -0x38(%rbp),%rax
    1920:	c6 00 00             	movb   $0x0,(%rax)
/export/lustre-2/verify/work/hjm/RTPG/RTG/rpg_source/src/fplib/gs_fplib.cpp:504
    1923:	48 8b 45 c8          	mov    -0x38(%rbp),%rax
    1927:	0f b6 10             	movzbl (%rax),%edx
    192a:	0f b6 45 f6          	movzbl -0xa(%rbp),%eax
    192e:	09 c2                	or     %eax,%edx
    1930:	48 8b 45 c8          	mov    -0x38(%rbp),%rax
    1934:	88 10                	mov    %dl,(%rax)
/export/lustre-2/verify/work/hjm/RTPG/RTG/rpg_source/src/fplib/gs_fplib.cpp:506
    1936:	48 8b 45 f8          	mov    -0x8(%rbp),%rax
    193a:	48 89 c7             	mov    %rax,%rdi
    193d:	e8 00 00 00 00       	call   1942 <vfneg_mul_add64+0x76>
    1942:	84 c0                	test   %al,%al
    1944:	75 10                	jne    1956 <vfneg_mul_add64+0x8a>
/export/lustre-2/verify/work/hjm/RTPG/RTG/rpg_source/src/fplib/gs_fplib.cpp:506 (discriminator 3)
    1946:	48 8b 45 f8          	mov    -0x8(%rbp),%rax
    194a:	48 89 c7             	mov    %rax,%rdi
    194d:	e8 00 00 00 00       	call   1952 <vfneg_mul_add64+0x86>
    1952:	84 c0                	test   %al,%al
    1954:	74 07                	je     195d <vfneg_mul_add64+0x91>
/export/lustre-2/verify/work/hjm/RTPG/RTG/rpg_source/src/fplib/gs_fplib.cpp:506 (discriminator 5)
    1956:	b8 01 00 00 00       	mov    $0x1,%eax
    195b:	eb 05                	jmp    1962 <vfneg_mul_add64+0x96>
/export/lustre-2/verify/work/hjm/RTPG/RTG/rpg_source/src/fplib/gs_fplib.cpp:506 (discriminator 6)
    195d:	b8 00 00 00 00       	mov    $0x0,%eax
/export/lustre-2/verify/work/hjm/RTPG/RTG/rpg_source/src/fplib/gs_fplib.cpp:506 (discriminator 8)
    1962:	84 c0                	test   %al,%al
    1964:	74 06                	je     196c <vfneg_mul_add64+0xa0>
/export/lustre-2/verify/work/hjm/RTPG/RTG/rpg_source/src/fplib/gs_fplib.cpp:507
    1966:	48 8b 45 f8          	mov    -0x8(%rbp),%rax
    196a:	eb 33                	jmp    199f <vfneg_mul_add64+0xd3>
/export/lustre-2/verify/work/hjm/RTPG/RTG/rpg_source/src/fplib/gs_fplib.cpp:509
    196c:	48 8b 45 f8          	mov    -0x8(%rbp),%rax
    1970:	48 c1 e8 3f          	shr    $0x3f,%rax
    1974:	88 45 f7             	mov    %al,-0x9(%rbp)
/export/lustre-2/verify/work/hjm/RTPG/RTG/rpg_source/src/fplib/gs_fplib.cpp:510
    1977:	48 b8 ff ff ff ff ff 	movabs $0x7fffffffffffffff,%rax
    197e:	ff ff 7f 
    1981:	48 21 45 f8          	and    %rax,-0x8(%rbp)
/export/lustre-2/verify/work/hjm/RTPG/RTG/rpg_source/src/fplib/gs_fplib.cpp:511
    1985:	80 7d f7 00          	cmpb   $0x0,-0x9(%rbp)
    1989:	74 06                	je     1991 <vfneg_mul_add64+0xc5>
/export/lustre-2/verify/work/hjm/RTPG/RTG/rpg_source/src/fplib/gs_fplib.cpp:511 (discriminator 1)
    198b:	48 8b 45 f8          	mov    -0x8(%rbp),%rax
    198f:	eb 0e                	jmp    199f <vfneg_mul_add64+0xd3>
/export/lustre-2/verify/work/hjm/RTPG/RTG/rpg_source/src/fplib/gs_fplib.cpp:511 (discriminator 2)
    1991:	48 b8 00 00 00 00 00 	movabs $0x8000000000000000,%rax
    1998:	00 00 80 
    199b:	48 0b 45 f8          	or     -0x8(%rbp),%rax
/export/lustre-2/verify/work/hjm/RTPG/RTG/rpg_source/src/fplib/gs_fplib.cpp:513 (discriminator 1)
    199f:	c9                   	leave  
    19a0:	c3                   	ret    

00000000000019a1 <vfmul_sub32>:
vfmul_sub32():
/export/lustre-2/verify/work/hjm/RTPG/RTG/rpg_source/src/fplib/gs_fplib.cpp:515
    19a1:	55                   	push   %rbp
    19a2:	48 89 e5             	mov    %rsp,%rbp
    19a5:	48 83 ec 30          	sub    $0x30,%rsp
    19a9:	89 7d ec             	mov    %edi,-0x14(%rbp)
    19ac:	89 75 e8             	mov    %esi,-0x18(%rbp)
    19af:	89 55 e4             	mov    %edx,-0x1c(%rbp)
    19b2:	89 ca                	mov    %ecx,%edx
    19b4:	44 89 c1             	mov    %r8d,%ecx
    19b7:	4c 89 4d d0          	mov    %r9,-0x30(%rbp)
    19bb:	8b 45 10             	mov    0x10(%rbp),%eax
    19be:	88 55 e0             	mov    %dl,-0x20(%rbp)
    19c1:	88 4d dc             	mov    %cl,-0x24(%rbp)
    19c4:	88 45 d8             	mov    %al,-0x28(%rbp)
/export/lustre-2/verify/work/hjm/RTPG/RTG/rpg_source/src/fplib/gs_fplib.cpp:516
    19c7:	0f b6 45 d8          	movzbl -0x28(%rbp),%eax
    19cb:	89 c7                	mov    %eax,%edi
    19cd:	e8 00 00 00 00       	call   19d2 <vfmul_sub32+0x31>
/export/lustre-2/verify/work/hjm/RTPG/RTG/rpg_source/src/fplib/gs_fplib.cpp:518
    19d2:	48 8d 4d fb          	lea    -0x5(%rbp),%rcx
    19d6:	8b 55 e4             	mov    -0x1c(%rbp),%edx
    19d9:	8b 75 e8             	mov    -0x18(%rbp),%esi
    19dc:	8b 45 ec             	mov    -0x14(%rbp),%eax
    19df:	89 c7                	mov    %eax,%edi
    19e1:	e8 00 00 00 00       	call   19e6 <vfmul_sub32+0x45>
    19e6:	89 45 fc             	mov    %eax,-0x4(%rbp)
/export/lustre-2/verify/work/hjm/RTPG/RTG/rpg_source/src/fplib/gs_fplib.cpp:522
    19e9:	48 8b 45 d0          	mov    -0x30(%rbp),%rax
    19ed:	c6 00 00             	movb   $0x0,(%rax)
/export/lustre-2/verify/work/hjm/RTPG/RTG/rpg_source/src/fplib/gs_fplib.cpp:523
    19f0:	48 8b 45 d0          	mov    -0x30(%rbp),%rax
    19f4:	0f b6 10             	movzbl (%rax),%edx
    19f7:	0f b6 45 fb          	movzbl -0x5(%rbp),%eax
    19fb:	09 c2                	or     %eax,%edx
    19fd:	48 8b 45 d0          	mov    -0x30(%rbp),%rax
    1a01:	88 10                	mov    %dl,(%rax)
/export/lustre-2/verify/work/hjm/RTPG/RTG/rpg_source/src/fplib/gs_fplib.cpp:525
    1a03:	8b 45 fc             	mov    -0x4(%rbp),%eax
/export/lustre-2/verify/work/hjm/RTPG/RTG/rpg_source/src/fplib/gs_fplib.cpp:526
    1a06:	c9                   	leave  
    1a07:	c3                   	ret    

0000000000001a08 <vfmul_sub64>:
vfmul_sub64():
/export/lustre-2/verify/work/hjm/RTPG/RTG/rpg_source/src/fplib/gs_fplib.cpp:529
    1a08:	55                   	push   %rbp
    1a09:	48 89 e5             	mov    %rsp,%rbp
    1a0c:	48 83 ec 40          	sub    $0x40,%rsp
    1a10:	48 89 7d e8          	mov    %rdi,-0x18(%rbp)
    1a14:	48 89 75 e0          	mov    %rsi,-0x20(%rbp)
    1a18:	48 89 55 d8          	mov    %rdx,-0x28(%rbp)
    1a1c:	89 ca                	mov    %ecx,%edx
    1a1e:	44 89 c1             	mov    %r8d,%ecx
    1a21:	4c 89 4d c8          	mov    %r9,-0x38(%rbp)
    1a25:	8b 45 10             	mov    0x10(%rbp),%eax
    1a28:	88 55 d4             	mov    %dl,-0x2c(%rbp)
    1a2b:	88 4d d0             	mov    %cl,-0x30(%rbp)
    1a2e:	88 45 c4             	mov    %al,-0x3c(%rbp)
/export/lustre-2/verify/work/hjm/RTPG/RTG/rpg_source/src/fplib/gs_fplib.cpp:530
    1a31:	0f b6 45 c4          	movzbl -0x3c(%rbp),%eax
    1a35:	89 c7                	mov    %eax,%edi
    1a37:	e8 00 00 00 00       	call   1a3c <vfmul_sub64+0x34>
/export/lustre-2/verify/work/hjm/RTPG/RTG/rpg_source/src/fplib/gs_fplib.cpp:532
    1a3c:	48 8d 4d f7          	lea    -0x9(%rbp),%rcx
    1a40:	48 8b 55 d8          	mov    -0x28(%rbp),%rdx
    1a44:	48 8b 75 e0          	mov    -0x20(%rbp),%rsi
    1a48:	48 8b 45 e8          	mov    -0x18(%rbp),%rax
    1a4c:	48 89 c7             	mov    %rax,%rdi
    1a4f:	e8 00 00 00 00       	call   1a54 <vfmul_sub64+0x4c>
    1a54:	48 89 45 f8          	mov    %rax,-0x8(%rbp)
/export/lustre-2/verify/work/hjm/RTPG/RTG/rpg_source/src/fplib/gs_fplib.cpp:536
    1a58:	48 8b 45 c8          	mov    -0x38(%rbp),%rax
    1a5c:	c6 00 00             	movb   $0x0,(%rax)
/export/lustre-2/verify/work/hjm/RTPG/RTG/rpg_source/src/fplib/gs_fplib.cpp:537
    1a5f:	48 8b 45 c8          	mov    -0x38(%rbp),%rax
    1a63:	0f b6 10             	movzbl (%rax),%edx
    1a66:	0f b6 45 f7          	movzbl -0x9(%rbp),%eax
    1a6a:	09 c2                	or     %eax,%edx
    1a6c:	48 8b 45 c8          	mov    -0x38(%rbp),%rax
    1a70:	88 10                	mov    %dl,(%rax)
/export/lustre-2/verify/work/hjm/RTPG/RTG/rpg_source/src/fplib/gs_fplib.cpp:539
    1a72:	48 8b 45 f8          	mov    -0x8(%rbp),%rax
/export/lustre-2/verify/work/hjm/RTPG/RTG/rpg_source/src/fplib/gs_fplib.cpp:540
    1a76:	c9                   	leave  
    1a77:	c3                   	ret    

0000000000001a78 <vfmul_add32>:
vfmul_add32():
/export/lustre-2/verify/work/hjm/RTPG/RTG/rpg_source/src/fplib/gs_fplib.cpp:542
    1a78:	55                   	push   %rbp
    1a79:	48 89 e5             	mov    %rsp,%rbp
    1a7c:	48 83 ec 30          	sub    $0x30,%rsp
    1a80:	89 7d ec             	mov    %edi,-0x14(%rbp)
    1a83:	89 75 e8             	mov    %esi,-0x18(%rbp)
    1a86:	89 55 e4             	mov    %edx,-0x1c(%rbp)
    1a89:	89 ca                	mov    %ecx,%edx
    1a8b:	44 89 c1             	mov    %r8d,%ecx
    1a8e:	4c 89 4d d0          	mov    %r9,-0x30(%rbp)
    1a92:	8b 45 10             	mov    0x10(%rbp),%eax
    1a95:	88 55 e0             	mov    %dl,-0x20(%rbp)
    1a98:	88 4d dc             	mov    %cl,-0x24(%rbp)
    1a9b:	88 45 d8             	mov    %al,-0x28(%rbp)
/export/lustre-2/verify/work/hjm/RTPG/RTG/rpg_source/src/fplib/gs_fplib.cpp:543
    1a9e:	0f b6 45 d8          	movzbl -0x28(%rbp),%eax
    1aa2:	89 c7                	mov    %eax,%edi
    1aa4:	e8 00 00 00 00       	call   1aa9 <vfmul_add32+0x31>
/export/lustre-2/verify/work/hjm/RTPG/RTG/rpg_source/src/fplib/gs_fplib.cpp:545
    1aa9:	48 8d 4d fb          	lea    -0x5(%rbp),%rcx
    1aad:	8b 55 e4             	mov    -0x1c(%rbp),%edx
    1ab0:	8b 75 e8             	mov    -0x18(%rbp),%esi
    1ab3:	8b 45 ec             	mov    -0x14(%rbp),%eax
    1ab6:	89 c7                	mov    %eax,%edi
    1ab8:	e8 00 00 00 00       	call   1abd <vfmul_add32+0x45>
    1abd:	89 45 fc             	mov    %eax,-0x4(%rbp)
/export/lustre-2/verify/work/hjm/RTPG/RTG/rpg_source/src/fplib/gs_fplib.cpp:549
    1ac0:	48 8b 45 d0          	mov    -0x30(%rbp),%rax
    1ac4:	c6 00 00             	movb   $0x0,(%rax)
/export/lustre-2/verify/work/hjm/RTPG/RTG/rpg_source/src/fplib/gs_fplib.cpp:550
    1ac7:	48 8b 45 d0          	mov    -0x30(%rbp),%rax
    1acb:	0f b6 10             	movzbl (%rax),%edx
    1ace:	0f b6 45 fb          	movzbl -0x5(%rbp),%eax
    1ad2:	09 c2                	or     %eax,%edx
    1ad4:	48 8b 45 d0          	mov    -0x30(%rbp),%rax
    1ad8:	88 10                	mov    %dl,(%rax)
/export/lustre-2/verify/work/hjm/RTPG/RTG/rpg_source/src/fplib/gs_fplib.cpp:552
    1ada:	8b 45 fc             	mov    -0x4(%rbp),%eax
/export/lustre-2/verify/work/hjm/RTPG/RTG/rpg_source/src/fplib/gs_fplib.cpp:553
    1add:	c9                   	leave  
    1ade:	c3                   	ret    

0000000000001adf <vfmul_add64>:
vfmul_add64():
/export/lustre-2/verify/work/hjm/RTPG/RTG/rpg_source/src/fplib/gs_fplib.cpp:555
    1adf:	55                   	push   %rbp
    1ae0:	48 89 e5             	mov    %rsp,%rbp
    1ae3:	48 83 ec 40          	sub    $0x40,%rsp
    1ae7:	48 89 7d e8          	mov    %rdi,-0x18(%rbp)
    1aeb:	48 89 75 e0          	mov    %rsi,-0x20(%rbp)
    1aef:	48 89 55 d8          	mov    %rdx,-0x28(%rbp)
    1af3:	89 ca                	mov    %ecx,%edx
    1af5:	44 89 c1             	mov    %r8d,%ecx
    1af8:	4c 89 4d c8          	mov    %r9,-0x38(%rbp)
    1afc:	8b 45 10             	mov    0x10(%rbp),%eax
    1aff:	88 55 d4             	mov    %dl,-0x2c(%rbp)
    1b02:	88 4d d0             	mov    %cl,-0x30(%rbp)
    1b05:	88 45 c4             	mov    %al,-0x3c(%rbp)
/export/lustre-2/verify/work/hjm/RTPG/RTG/rpg_source/src/fplib/gs_fplib.cpp:556
    1b08:	0f b6 45 c4          	movzbl -0x3c(%rbp),%eax
    1b0c:	89 c7                	mov    %eax,%edi
    1b0e:	e8 00 00 00 00       	call   1b13 <vfmul_add64+0x34>
/export/lustre-2/verify/work/hjm/RTPG/RTG/rpg_source/src/fplib/gs_fplib.cpp:558
    1b13:	48 8d 4d f7          	lea    -0x9(%rbp),%rcx
    1b17:	48 8b 55 d8          	mov    -0x28(%rbp),%rdx
    1b1b:	48 8b 75 e0          	mov    -0x20(%rbp),%rsi
    1b1f:	48 8b 45 e8          	mov    -0x18(%rbp),%rax
    1b23:	48 89 c7             	mov    %rax,%rdi
    1b26:	e8 00 00 00 00       	call   1b2b <vfmul_add64+0x4c>
    1b2b:	48 89 45 f8          	mov    %rax,-0x8(%rbp)
/export/lustre-2/verify/work/hjm/RTPG/RTG/rpg_source/src/fplib/gs_fplib.cpp:562
    1b2f:	48 8b 45 c8          	mov    -0x38(%rbp),%rax
    1b33:	c6 00 00             	movb   $0x0,(%rax)
/export/lustre-2/verify/work/hjm/RTPG/RTG/rpg_source/src/fplib/gs_fplib.cpp:563
    1b36:	48 8b 45 c8          	mov    -0x38(%rbp),%rax
    1b3a:	0f b6 10             	movzbl (%rax),%edx
    1b3d:	0f b6 45 f7          	movzbl -0x9(%rbp),%eax
    1b41:	09 c2                	or     %eax,%edx
    1b43:	48 8b 45 c8          	mov    -0x38(%rbp),%rax
    1b47:	88 10                	mov    %dl,(%rax)
/export/lustre-2/verify/work/hjm/RTPG/RTG/rpg_source/src/fplib/gs_fplib.cpp:565
    1b49:	48 8b 45 f8          	mov    -0x8(%rbp),%rax
/export/lustre-2/verify/work/hjm/RTPG/RTG/rpg_source/src/fplib/gs_fplib.cpp:566
    1b4d:	c9                   	leave  
    1b4e:	c3                   	ret    

0000000000001b4f <vfdiv64>:
vfdiv64():
/export/lustre-2/verify/work/hjm/RTPG/RTG/rpg_source/src/fplib/gs_fplib.cpp:571
    1b4f:	55                   	push   %rbp
    1b50:	48 89 e5             	mov    %rsp,%rbp
    1b53:	48 83 ec 40          	sub    $0x40,%rsp
    1b57:	48 89 7d e8          	mov    %rdi,-0x18(%rbp)
    1b5b:	48 89 75 e0          	mov    %rsi,-0x20(%rbp)
    1b5f:	89 c8                	mov    %ecx,%eax
    1b61:	4c 89 45 d0          	mov    %r8,-0x30(%rbp)
    1b65:	44 89 c9             	mov    %r9d,%ecx
    1b68:	88 55 dc             	mov    %dl,-0x24(%rbp)
    1b6b:	88 45 d8             	mov    %al,-0x28(%rbp)
    1b6e:	88 4d cc             	mov    %cl,-0x34(%rbp)
/export/lustre-2/verify/work/hjm/RTPG/RTG/rpg_source/src/fplib/gs_fplib.cpp:572
    1b71:	0f b6 45 cc          	movzbl -0x34(%rbp),%eax
    1b75:	89 c7                	mov    %eax,%edi
    1b77:	e8 00 00 00 00       	call   1b7c <vfdiv64+0x2d>
/export/lustre-2/verify/work/hjm/RTPG/RTG/rpg_source/src/fplib/gs_fplib.cpp:574
    1b7c:	48 8d 55 f7          	lea    -0x9(%rbp),%rdx
    1b80:	48 8b 4d e0          	mov    -0x20(%rbp),%rcx
    1b84:	48 8b 45 e8          	mov    -0x18(%rbp),%rax
    1b88:	48 89 ce             	mov    %rcx,%rsi
    1b8b:	48 89 c7             	mov    %rax,%rdi
    1b8e:	e8 00 00 00 00       	call   1b93 <vfdiv64+0x44>
    1b93:	48 89 45 f8          	mov    %rax,-0x8(%rbp)
/export/lustre-2/verify/work/hjm/RTPG/RTG/rpg_source/src/fplib/gs_fplib.cpp:578
    1b97:	48 8b 45 d0          	mov    -0x30(%rbp),%rax
    1b9b:	c6 00 00             	movb   $0x0,(%rax)
/export/lustre-2/verify/work/hjm/RTPG/RTG/rpg_source/src/fplib/gs_fplib.cpp:579
    1b9e:	48 8b 45 d0          	mov    -0x30(%rbp),%rax
    1ba2:	0f b6 10             	movzbl (%rax),%edx
    1ba5:	0f b6 45 f7          	movzbl -0x9(%rbp),%eax
    1ba9:	09 c2                	or     %eax,%edx
    1bab:	48 8b 45 d0          	mov    -0x30(%rbp),%rax
    1baf:	88 10                	mov    %dl,(%rax)
/export/lustre-2/verify/work/hjm/RTPG/RTG/rpg_source/src/fplib/gs_fplib.cpp:581
    1bb1:	48 8b 45 f8          	mov    -0x8(%rbp),%rax
/export/lustre-2/verify/work/hjm/RTPG/RTG/rpg_source/src/fplib/gs_fplib.cpp:582
    1bb5:	c9                   	leave  
    1bb6:	c3                   	ret    

0000000000001bb7 <vfdiv32>:
vfdiv32():
/export/lustre-2/verify/work/hjm/RTPG/RTG/rpg_source/src/fplib/gs_fplib.cpp:584
    1bb7:	55                   	push   %rbp
    1bb8:	48 89 e5             	mov    %rsp,%rbp
    1bbb:	48 83 ec 30          	sub    $0x30,%rsp
    1bbf:	89 7d ec             	mov    %edi,-0x14(%rbp)
    1bc2:	89 75 e8             	mov    %esi,-0x18(%rbp)
    1bc5:	89 c8                	mov    %ecx,%eax
    1bc7:	4c 89 45 d8          	mov    %r8,-0x28(%rbp)
    1bcb:	44 89 c9             	mov    %r9d,%ecx
    1bce:	88 55 e4             	mov    %dl,-0x1c(%rbp)
    1bd1:	88 45 e0             	mov    %al,-0x20(%rbp)
    1bd4:	88 4d d4             	mov    %cl,-0x2c(%rbp)
/export/lustre-2/verify/work/hjm/RTPG/RTG/rpg_source/src/fplib/gs_fplib.cpp:585
    1bd7:	0f b6 45 d4          	movzbl -0x2c(%rbp),%eax
    1bdb:	89 c7                	mov    %eax,%edi
    1bdd:	e8 00 00 00 00       	call   1be2 <vfdiv32+0x2b>
/export/lustre-2/verify/work/hjm/RTPG/RTG/rpg_source/src/fplib/gs_fplib.cpp:587
    1be2:	48 8d 55 fb          	lea    -0x5(%rbp),%rdx
    1be6:	8b 4d e8             	mov    -0x18(%rbp),%ecx
    1be9:	8b 45 ec             	mov    -0x14(%rbp),%eax
    1bec:	89 ce                	mov    %ecx,%esi
    1bee:	89 c7                	mov    %eax,%edi
    1bf0:	e8 00 00 00 00       	call   1bf5 <vfdiv32+0x3e>
    1bf5:	89 45 fc             	mov    %eax,-0x4(%rbp)
/export/lustre-2/verify/work/hjm/RTPG/RTG/rpg_source/src/fplib/gs_fplib.cpp:591
    1bf8:	48 8b 45 d8          	mov    -0x28(%rbp),%rax
    1bfc:	c6 00 00             	movb   $0x0,(%rax)
/export/lustre-2/verify/work/hjm/RTPG/RTG/rpg_source/src/fplib/gs_fplib.cpp:592
    1bff:	48 8b 45 d8          	mov    -0x28(%rbp),%rax
    1c03:	0f b6 10             	movzbl (%rax),%edx
    1c06:	0f b6 45 fb          	movzbl -0x5(%rbp),%eax
    1c0a:	09 c2                	or     %eax,%edx
    1c0c:	48 8b 45 d8          	mov    -0x28(%rbp),%rax
    1c10:	88 10                	mov    %dl,(%rax)
/export/lustre-2/verify/work/hjm/RTPG/RTG/rpg_source/src/fplib/gs_fplib.cpp:594
    1c12:	8b 45 fc             	mov    -0x4(%rbp),%eax
/export/lustre-2/verify/work/hjm/RTPG/RTG/rpg_source/src/fplib/gs_fplib.cpp:595
    1c15:	c9                   	leave  
    1c16:	c3                   	ret    

0000000000001c17 <vfsub32>:
vfsub32():
/export/lustre-2/verify/work/hjm/RTPG/RTG/rpg_source/src/fplib/gs_fplib.cpp:597
    1c17:	55                   	push   %rbp
    1c18:	48 89 e5             	mov    %rsp,%rbp
    1c1b:	48 83 ec 30          	sub    $0x30,%rsp
    1c1f:	89 7d ec             	mov    %edi,-0x14(%rbp)
    1c22:	89 75 e8             	mov    %esi,-0x18(%rbp)
    1c25:	89 c8                	mov    %ecx,%eax
    1c27:	4c 89 45 d8          	mov    %r8,-0x28(%rbp)
    1c2b:	44 89 c9             	mov    %r9d,%ecx
    1c2e:	88 55 e4             	mov    %dl,-0x1c(%rbp)
    1c31:	88 45 e0             	mov    %al,-0x20(%rbp)
    1c34:	88 4d d4             	mov    %cl,-0x2c(%rbp)
/export/lustre-2/verify/work/hjm/RTPG/RTG/rpg_source/src/fplib/gs_fplib.cpp:598
    1c37:	0f b6 45 d4          	movzbl -0x2c(%rbp),%eax
    1c3b:	89 c7                	mov    %eax,%edi
    1c3d:	e8 00 00 00 00       	call   1c42 <vfsub32+0x2b>
/export/lustre-2/verify/work/hjm/RTPG/RTG/rpg_source/src/fplib/gs_fplib.cpp:600
    1c42:	48 8d 55 fb          	lea    -0x5(%rbp),%rdx
    1c46:	8b 4d e8             	mov    -0x18(%rbp),%ecx
    1c49:	8b 45 ec             	mov    -0x14(%rbp),%eax
    1c4c:	89 ce                	mov    %ecx,%esi
    1c4e:	89 c7                	mov    %eax,%edi
    1c50:	e8 00 00 00 00       	call   1c55 <vfsub32+0x3e>
    1c55:	89 45 fc             	mov    %eax,-0x4(%rbp)
/export/lustre-2/verify/work/hjm/RTPG/RTG/rpg_source/src/fplib/gs_fplib.cpp:604
    1c58:	48 8b 45 d8          	mov    -0x28(%rbp),%rax
    1c5c:	c6 00 00             	movb   $0x0,(%rax)
/export/lustre-2/verify/work/hjm/RTPG/RTG/rpg_source/src/fplib/gs_fplib.cpp:605
    1c5f:	48 8b 45 d8          	mov    -0x28(%rbp),%rax
    1c63:	0f b6 10             	movzbl (%rax),%edx
    1c66:	0f b6 45 fb          	movzbl -0x5(%rbp),%eax
    1c6a:	09 c2                	or     %eax,%edx
    1c6c:	48 8b 45 d8          	mov    -0x28(%rbp),%rax
    1c70:	88 10                	mov    %dl,(%rax)
/export/lustre-2/verify/work/hjm/RTPG/RTG/rpg_source/src/fplib/gs_fplib.cpp:607
    1c72:	8b 45 fc             	mov    -0x4(%rbp),%eax
/export/lustre-2/verify/work/hjm/RTPG/RTG/rpg_source/src/fplib/gs_fplib.cpp:608
    1c75:	c9                   	leave  
    1c76:	c3                   	ret    

0000000000001c77 <vfsub64>:
vfsub64():
/export/lustre-2/verify/work/hjm/RTPG/RTG/rpg_source/src/fplib/gs_fplib.cpp:611
    1c77:	55                   	push   %rbp
    1c78:	48 89 e5             	mov    %rsp,%rbp
    1c7b:	48 83 ec 40          	sub    $0x40,%rsp
    1c7f:	48 89 7d e8          	mov    %rdi,-0x18(%rbp)
    1c83:	48 89 75 e0          	mov    %rsi,-0x20(%rbp)
    1c87:	89 c8                	mov    %ecx,%eax
    1c89:	4c 89 45 d0          	mov    %r8,-0x30(%rbp)
    1c8d:	44 89 c9             	mov    %r9d,%ecx
    1c90:	88 55 dc             	mov    %dl,-0x24(%rbp)
    1c93:	88 45 d8             	mov    %al,-0x28(%rbp)
    1c96:	88 4d cc             	mov    %cl,-0x34(%rbp)
/export/lustre-2/verify/work/hjm/RTPG/RTG/rpg_source/src/fplib/gs_fplib.cpp:612
    1c99:	0f b6 45 cc          	movzbl -0x34(%rbp),%eax
    1c9d:	89 c7                	mov    %eax,%edi
    1c9f:	e8 00 00 00 00       	call   1ca4 <vfsub64+0x2d>
/export/lustre-2/verify/work/hjm/RTPG/RTG/rpg_source/src/fplib/gs_fplib.cpp:614
    1ca4:	48 8d 55 f7          	lea    -0x9(%rbp),%rdx
    1ca8:	48 8b 4d e0          	mov    -0x20(%rbp),%rcx
    1cac:	48 8b 45 e8          	mov    -0x18(%rbp),%rax
    1cb0:	48 89 ce             	mov    %rcx,%rsi
    1cb3:	48 89 c7             	mov    %rax,%rdi
    1cb6:	e8 00 00 00 00       	call   1cbb <vfsub64+0x44>
    1cbb:	48 89 45 f8          	mov    %rax,-0x8(%rbp)
/export/lustre-2/verify/work/hjm/RTPG/RTG/rpg_source/src/fplib/gs_fplib.cpp:618
    1cbf:	48 8b 45 d0          	mov    -0x30(%rbp),%rax
    1cc3:	c6 00 00             	movb   $0x0,(%rax)
/export/lustre-2/verify/work/hjm/RTPG/RTG/rpg_source/src/fplib/gs_fplib.cpp:619
    1cc6:	48 8b 45 d0          	mov    -0x30(%rbp),%rax
    1cca:	0f b6 10             	movzbl (%rax),%edx
    1ccd:	0f b6 45 f7          	movzbl -0x9(%rbp),%eax
    1cd1:	09 c2                	or     %eax,%edx
    1cd3:	48 8b 45 d0          	mov    -0x30(%rbp),%rax
    1cd7:	88 10                	mov    %dl,(%rax)
/export/lustre-2/verify/work/hjm/RTPG/RTG/rpg_source/src/fplib/gs_fplib.cpp:621
    1cd9:	48 8b 45 f8          	mov    -0x8(%rbp),%rax
/export/lustre-2/verify/work/hjm/RTPG/RTG/rpg_source/src/fplib/gs_fplib.cpp:622
    1cdd:	c9                   	leave  
    1cde:	c3                   	ret    

0000000000001cdf <vfadd32>:
vfadd32():
/export/lustre-2/verify/work/hjm/RTPG/RTG/rpg_source/src/fplib/gs_fplib.cpp:624
    1cdf:	55                   	push   %rbp
    1ce0:	48 89 e5             	mov    %rsp,%rbp
    1ce3:	48 83 ec 30          	sub    $0x30,%rsp
    1ce7:	89 7d ec             	mov    %edi,-0x14(%rbp)
    1cea:	89 75 e8             	mov    %esi,-0x18(%rbp)
    1ced:	89 c8                	mov    %ecx,%eax
    1cef:	4c 89 45 d8          	mov    %r8,-0x28(%rbp)
    1cf3:	44 89 c9             	mov    %r9d,%ecx
    1cf6:	88 55 e4             	mov    %dl,-0x1c(%rbp)
    1cf9:	88 45 e0             	mov    %al,-0x20(%rbp)
    1cfc:	88 4d d4             	mov    %cl,-0x2c(%rbp)
/export/lustre-2/verify/work/hjm/RTPG/RTG/rpg_source/src/fplib/gs_fplib.cpp:625
    1cff:	0f b6 45 d4          	movzbl -0x2c(%rbp),%eax
    1d03:	89 c7                	mov    %eax,%edi
    1d05:	e8 00 00 00 00       	call   1d0a <vfadd32+0x2b>
/export/lustre-2/verify/work/hjm/RTPG/RTG/rpg_source/src/fplib/gs_fplib.cpp:627
    1d0a:	48 8d 55 fb          	lea    -0x5(%rbp),%rdx
    1d0e:	8b 4d e8             	mov    -0x18(%rbp),%ecx
    1d11:	8b 45 ec             	mov    -0x14(%rbp),%eax
    1d14:	89 ce                	mov    %ecx,%esi
    1d16:	89 c7                	mov    %eax,%edi
    1d18:	e8 00 00 00 00       	call   1d1d <vfadd32+0x3e>
    1d1d:	89 45 fc             	mov    %eax,-0x4(%rbp)
/export/lustre-2/verify/work/hjm/RTPG/RTG/rpg_source/src/fplib/gs_fplib.cpp:631
    1d20:	48 8b 45 d8          	mov    -0x28(%rbp),%rax
    1d24:	c6 00 00             	movb   $0x0,(%rax)
/export/lustre-2/verify/work/hjm/RTPG/RTG/rpg_source/src/fplib/gs_fplib.cpp:632
    1d27:	48 8b 45 d8          	mov    -0x28(%rbp),%rax
    1d2b:	0f b6 10             	movzbl (%rax),%edx
    1d2e:	0f b6 45 fb          	movzbl -0x5(%rbp),%eax
    1d32:	09 c2                	or     %eax,%edx
    1d34:	48 8b 45 d8          	mov    -0x28(%rbp),%rax
    1d38:	88 10                	mov    %dl,(%rax)
/export/lustre-2/verify/work/hjm/RTPG/RTG/rpg_source/src/fplib/gs_fplib.cpp:633
    1d3a:	8b 45 fc             	mov    -0x4(%rbp),%eax
/export/lustre-2/verify/work/hjm/RTPG/RTG/rpg_source/src/fplib/gs_fplib.cpp:634
    1d3d:	c9                   	leave  
    1d3e:	c3                   	ret    

0000000000001d3f <vfadd64>:
vfadd64():
/export/lustre-2/verify/work/hjm/RTPG/RTG/rpg_source/src/fplib/gs_fplib.cpp:637
    1d3f:	55                   	push   %rbp
    1d40:	48 89 e5             	mov    %rsp,%rbp
    1d43:	48 83 ec 40          	sub    $0x40,%rsp
    1d47:	48 89 7d e8          	mov    %rdi,-0x18(%rbp)
    1d4b:	48 89 75 e0          	mov    %rsi,-0x20(%rbp)
    1d4f:	89 c8                	mov    %ecx,%eax
    1d51:	4c 89 45 d0          	mov    %r8,-0x30(%rbp)
    1d55:	44 89 c9             	mov    %r9d,%ecx
    1d58:	88 55 dc             	mov    %dl,-0x24(%rbp)
    1d5b:	88 45 d8             	mov    %al,-0x28(%rbp)
    1d5e:	88 4d cc             	mov    %cl,-0x34(%rbp)
/export/lustre-2/verify/work/hjm/RTPG/RTG/rpg_source/src/fplib/gs_fplib.cpp:638
    1d61:	0f b6 45 cc          	movzbl -0x34(%rbp),%eax
    1d65:	89 c7                	mov    %eax,%edi
    1d67:	e8 00 00 00 00       	call   1d6c <vfadd64+0x2d>
/export/lustre-2/verify/work/hjm/RTPG/RTG/rpg_source/src/fplib/gs_fplib.cpp:640
    1d6c:	48 8d 55 f7          	lea    -0x9(%rbp),%rdx
    1d70:	48 8b 4d e0          	mov    -0x20(%rbp),%rcx
    1d74:	48 8b 45 e8          	mov    -0x18(%rbp),%rax
    1d78:	48 89 ce             	mov    %rcx,%rsi
    1d7b:	48 89 c7             	mov    %rax,%rdi
    1d7e:	e8 00 00 00 00       	call   1d83 <vfadd64+0x44>
    1d83:	48 89 45 f8          	mov    %rax,-0x8(%rbp)
/export/lustre-2/verify/work/hjm/RTPG/RTG/rpg_source/src/fplib/gs_fplib.cpp:644
    1d87:	48 8b 45 d0          	mov    -0x30(%rbp),%rax
    1d8b:	c6 00 00             	movb   $0x0,(%rax)
/export/lustre-2/verify/work/hjm/RTPG/RTG/rpg_source/src/fplib/gs_fplib.cpp:645
    1d8e:	48 8b 45 d0          	mov    -0x30(%rbp),%rax
    1d92:	0f b6 10             	movzbl (%rax),%edx
    1d95:	0f b6 45 f7          	movzbl -0x9(%rbp),%eax
    1d99:	09 c2                	or     %eax,%edx
    1d9b:	48 8b 45 d0          	mov    -0x30(%rbp),%rax
    1d9f:	88 10                	mov    %dl,(%rax)
/export/lustre-2/verify/work/hjm/RTPG/RTG/rpg_source/src/fplib/gs_fplib.cpp:647
    1da1:	48 8b 45 f8          	mov    -0x8(%rbp),%rax
/export/lustre-2/verify/work/hjm/RTPG/RTG/rpg_source/src/fplib/gs_fplib.cpp:648
    1da5:	c9                   	leave  
    1da6:	c3                   	ret    

0000000000001da7 <vfmul32>:
vfmul32():
/export/lustre-2/verify/work/hjm/RTPG/RTG/rpg_source/src/fplib/gs_fplib.cpp:651
    1da7:	55                   	push   %rbp
    1da8:	48 89 e5             	mov    %rsp,%rbp
    1dab:	48 83 ec 30          	sub    $0x30,%rsp
    1daf:	89 7d ec             	mov    %edi,-0x14(%rbp)
    1db2:	89 75 e8             	mov    %esi,-0x18(%rbp)
    1db5:	89 c8                	mov    %ecx,%eax
    1db7:	4c 89 45 d8          	mov    %r8,-0x28(%rbp)
    1dbb:	44 89 c9             	mov    %r9d,%ecx
    1dbe:	88 55 e4             	mov    %dl,-0x1c(%rbp)
    1dc1:	88 45 e0             	mov    %al,-0x20(%rbp)
    1dc4:	88 4d d4             	mov    %cl,-0x2c(%rbp)
/export/lustre-2/verify/work/hjm/RTPG/RTG/rpg_source/src/fplib/gs_fplib.cpp:652
    1dc7:	0f b6 45 d4          	movzbl -0x2c(%rbp),%eax
    1dcb:	89 c7                	mov    %eax,%edi
    1dcd:	e8 00 00 00 00       	call   1dd2 <vfmul32+0x2b>
/export/lustre-2/verify/work/hjm/RTPG/RTG/rpg_source/src/fplib/gs_fplib.cpp:654
    1dd2:	48 8d 55 fb          	lea    -0x5(%rbp),%rdx
    1dd6:	8b 4d e8             	mov    -0x18(%rbp),%ecx
    1dd9:	8b 45 ec             	mov    -0x14(%rbp),%eax
    1ddc:	89 ce                	mov    %ecx,%esi
    1dde:	89 c7                	mov    %eax,%edi
    1de0:	e8 00 00 00 00       	call   1de5 <vfmul32+0x3e>
    1de5:	89 45 fc             	mov    %eax,-0x4(%rbp)
/export/lustre-2/verify/work/hjm/RTPG/RTG/rpg_source/src/fplib/gs_fplib.cpp:658
    1de8:	48 8b 45 d8          	mov    -0x28(%rbp),%rax
    1dec:	c6 00 00             	movb   $0x0,(%rax)
/export/lustre-2/verify/work/hjm/RTPG/RTG/rpg_source/src/fplib/gs_fplib.cpp:659
    1def:	48 8b 45 d8          	mov    -0x28(%rbp),%rax
    1df3:	0f b6 10             	movzbl (%rax),%edx
    1df6:	0f b6 45 fb          	movzbl -0x5(%rbp),%eax
    1dfa:	09 c2                	or     %eax,%edx
    1dfc:	48 8b 45 d8          	mov    -0x28(%rbp),%rax
    1e00:	88 10                	mov    %dl,(%rax)
/export/lustre-2/verify/work/hjm/RTPG/RTG/rpg_source/src/fplib/gs_fplib.cpp:661
    1e02:	8b 45 fc             	mov    -0x4(%rbp),%eax
/export/lustre-2/verify/work/hjm/RTPG/RTG/rpg_source/src/fplib/gs_fplib.cpp:662
    1e05:	c9                   	leave  
    1e06:	c3                   	ret    

0000000000001e07 <vfmul32_exp2fp>:
vfmul32_exp2fp():
/export/lustre-2/verify/work/hjm/RTPG/RTG/rpg_source/src/fplib/gs_fplib.cpp:664
    1e07:	55                   	push   %rbp
    1e08:	48 89 e5             	mov    %rsp,%rbp
    1e0b:	48 83 ec 30          	sub    $0x30,%rsp
    1e0f:	89 7d ec             	mov    %edi,-0x14(%rbp)
    1e12:	89 75 e8             	mov    %esi,-0x18(%rbp)
    1e15:	89 c8                	mov    %ecx,%eax
    1e17:	4c 89 45 d8          	mov    %r8,-0x28(%rbp)
    1e1b:	44 89 c9             	mov    %r9d,%ecx
    1e1e:	88 55 e4             	mov    %dl,-0x1c(%rbp)
    1e21:	88 45 e0             	mov    %al,-0x20(%rbp)
    1e24:	88 4d d4             	mov    %cl,-0x2c(%rbp)
/export/lustre-2/verify/work/hjm/RTPG/RTG/rpg_source/src/fplib/gs_fplib.cpp:665
    1e27:	0f b6 45 d4          	movzbl -0x2c(%rbp),%eax
    1e2b:	89 c7                	mov    %eax,%edi
    1e2d:	e8 00 00 00 00       	call   1e32 <vfmul32_exp2fp+0x2b>
/export/lustre-2/verify/work/hjm/RTPG/RTG/rpg_source/src/fplib/gs_fplib.cpp:667
    1e32:	48 8d 55 fb          	lea    -0x5(%rbp),%rdx
    1e36:	8b 4d e8             	mov    -0x18(%rbp),%ecx
    1e39:	8b 45 ec             	mov    -0x14(%rbp),%eax
    1e3c:	89 ce                	mov    %ecx,%esi
    1e3e:	89 c7                	mov    %eax,%edi
    1e40:	e8 00 00 00 00       	call   1e45 <vfmul32_exp2fp+0x3e>
    1e45:	89 45 fc             	mov    %eax,-0x4(%rbp)
/export/lustre-2/verify/work/hjm/RTPG/RTG/rpg_source/src/fplib/gs_fplib.cpp:671
    1e48:	48 8b 45 d8          	mov    -0x28(%rbp),%rax
    1e4c:	c6 00 00             	movb   $0x0,(%rax)
/export/lustre-2/verify/work/hjm/RTPG/RTG/rpg_source/src/fplib/gs_fplib.cpp:672
    1e4f:	48 8b 45 d8          	mov    -0x28(%rbp),%rax
    1e53:	0f b6 10             	movzbl (%rax),%edx
    1e56:	0f b6 45 fb          	movzbl -0x5(%rbp),%eax
    1e5a:	09 c2                	or     %eax,%edx
    1e5c:	48 8b 45 d8          	mov    -0x28(%rbp),%rax
    1e60:	88 10                	mov    %dl,(%rax)
/export/lustre-2/verify/work/hjm/RTPG/RTG/rpg_source/src/fplib/gs_fplib.cpp:674
    1e62:	8b 45 fc             	mov    -0x4(%rbp),%eax
/export/lustre-2/verify/work/hjm/RTPG/RTG/rpg_source/src/fplib/gs_fplib.cpp:675
    1e65:	c9                   	leave  
    1e66:	c3                   	ret    

0000000000001e67 <vfmul64_exp2fp>:
vfmul64_exp2fp():
/export/lustre-2/verify/work/hjm/RTPG/RTG/rpg_source/src/fplib/gs_fplib.cpp:677
    1e67:	55                   	push   %rbp
    1e68:	48 89 e5             	mov    %rsp,%rbp
    1e6b:	48 83 ec 40          	sub    $0x40,%rsp
    1e6f:	48 89 7d e8          	mov    %rdi,-0x18(%rbp)
    1e73:	48 89 75 e0          	mov    %rsi,-0x20(%rbp)
    1e77:	89 c8                	mov    %ecx,%eax
    1e79:	4c 89 45 d0          	mov    %r8,-0x30(%rbp)
    1e7d:	44 89 c9             	mov    %r9d,%ecx
    1e80:	88 55 dc             	mov    %dl,-0x24(%rbp)
    1e83:	88 45 d8             	mov    %al,-0x28(%rbp)
    1e86:	88 4d cc             	mov    %cl,-0x34(%rbp)
/export/lustre-2/verify/work/hjm/RTPG/RTG/rpg_source/src/fplib/gs_fplib.cpp:678
    1e89:	0f b6 45 cc          	movzbl -0x34(%rbp),%eax
    1e8d:	89 c7                	mov    %eax,%edi
    1e8f:	e8 00 00 00 00       	call   1e94 <vfmul64_exp2fp+0x2d>
/export/lustre-2/verify/work/hjm/RTPG/RTG/rpg_source/src/fplib/gs_fplib.cpp:680
    1e94:	48 8d 55 f7          	lea    -0x9(%rbp),%rdx
    1e98:	48 8b 4d e0          	mov    -0x20(%rbp),%rcx
    1e9c:	48 8b 45 e8          	mov    -0x18(%rbp),%rax
    1ea0:	48 89 ce             	mov    %rcx,%rsi
    1ea3:	48 89 c7             	mov    %rax,%rdi
    1ea6:	e8 00 00 00 00       	call   1eab <vfmul64_exp2fp+0x44>
    1eab:	48 89 45 f8          	mov    %rax,-0x8(%rbp)
/export/lustre-2/verify/work/hjm/RTPG/RTG/rpg_source/src/fplib/gs_fplib.cpp:684
    1eaf:	48 8b 45 d0          	mov    -0x30(%rbp),%rax
    1eb3:	c6 00 00             	movb   $0x0,(%rax)
/export/lustre-2/verify/work/hjm/RTPG/RTG/rpg_source/src/fplib/gs_fplib.cpp:685
    1eb6:	48 8b 45 d0          	mov    -0x30(%rbp),%rax
    1eba:	0f b6 10             	movzbl (%rax),%edx
    1ebd:	0f b6 45 f7          	movzbl -0x9(%rbp),%eax
    1ec1:	09 c2                	or     %eax,%edx
    1ec3:	48 8b 45 d0          	mov    -0x30(%rbp),%rax
    1ec7:	88 10                	mov    %dl,(%rax)
/export/lustre-2/verify/work/hjm/RTPG/RTG/rpg_source/src/fplib/gs_fplib.cpp:687
    1ec9:	48 8b 45 f8          	mov    -0x8(%rbp),%rax
/export/lustre-2/verify/work/hjm/RTPG/RTG/rpg_source/src/fplib/gs_fplib.cpp:688
    1ecd:	c9                   	leave  
    1ece:	c3                   	ret    

0000000000001ecf <vfmul64>:
vfmul64():
/export/lustre-2/verify/work/hjm/RTPG/RTG/rpg_source/src/fplib/gs_fplib.cpp:691
    1ecf:	55                   	push   %rbp
    1ed0:	48 89 e5             	mov    %rsp,%rbp
    1ed3:	48 83 ec 40          	sub    $0x40,%rsp
    1ed7:	48 89 7d e8          	mov    %rdi,-0x18(%rbp)
    1edb:	48 89 75 e0          	mov    %rsi,-0x20(%rbp)
    1edf:	89 c8                	mov    %ecx,%eax
    1ee1:	4c 89 45 d0          	mov    %r8,-0x30(%rbp)
    1ee5:	44 89 c9             	mov    %r9d,%ecx
    1ee8:	88 55 dc             	mov    %dl,-0x24(%rbp)
    1eeb:	88 45 d8             	mov    %al,-0x28(%rbp)
    1eee:	88 4d cc             	mov    %cl,-0x34(%rbp)
/export/lustre-2/verify/work/hjm/RTPG/RTG/rpg_source/src/fplib/gs_fplib.cpp:692
    1ef1:	0f b6 45 cc          	movzbl -0x34(%rbp),%eax
    1ef5:	89 c7                	mov    %eax,%edi
    1ef7:	e8 00 00 00 00       	call   1efc <vfmul64+0x2d>
/export/lustre-2/verify/work/hjm/RTPG/RTG/rpg_source/src/fplib/gs_fplib.cpp:694
    1efc:	48 8d 55 f7          	lea    -0x9(%rbp),%rdx
    1f00:	48 8b 4d e0          	mov    -0x20(%rbp),%rcx
    1f04:	48 8b 45 e8          	mov    -0x18(%rbp),%rax
    1f08:	48 89 ce             	mov    %rcx,%rsi
    1f0b:	48 89 c7             	mov    %rax,%rdi
    1f0e:	e8 00 00 00 00       	call   1f13 <vfmul64+0x44>
    1f13:	48 89 45 f8          	mov    %rax,-0x8(%rbp)
/export/lustre-2/verify/work/hjm/RTPG/RTG/rpg_source/src/fplib/gs_fplib.cpp:698
    1f17:	48 8b 45 d0          	mov    -0x30(%rbp),%rax
    1f1b:	c6 00 00             	movb   $0x0,(%rax)
/export/lustre-2/verify/work/hjm/RTPG/RTG/rpg_source/src/fplib/gs_fplib.cpp:699
    1f1e:	48 8b 45 d0          	mov    -0x30(%rbp),%rax
    1f22:	0f b6 10             	movzbl (%rax),%edx
    1f25:	0f b6 45 f7          	movzbl -0x9(%rbp),%eax
    1f29:	09 c2                	or     %eax,%edx
    1f2b:	48 8b 45 d0          	mov    -0x30(%rbp),%rax
    1f2f:	88 10                	mov    %dl,(%rax)
/export/lustre-2/verify/work/hjm/RTPG/RTG/rpg_source/src/fplib/gs_fplib.cpp:701
    1f31:	48 8b 45 f8          	mov    -0x8(%rbp),%rax
/export/lustre-2/verify/work/hjm/RTPG/RTG/rpg_source/src/fplib/gs_fplib.cpp:702
    1f35:	c9                   	leave  
    1f36:	c3                   	ret    

0000000000001f37 <fadd64>:
fadd64():
/export/lustre-2/verify/work/hjm/RTPG/RTG/rpg_source/src/fplib/gs_fplib.cpp:707
    1f37:	55                   	push   %rbp
    1f38:	48 89 e5             	mov    %rsp,%rbp
    1f3b:	48 83 ec 30          	sub    $0x30,%rsp
    1f3f:	48 89 7d e8          	mov    %rdi,-0x18(%rbp)
    1f43:	48 89 75 e0          	mov    %rsi,-0x20(%rbp)
    1f47:	89 c8                	mov    %ecx,%eax
    1f49:	4c 89 45 d0          	mov    %r8,-0x30(%rbp)
    1f4d:	88 55 dc             	mov    %dl,-0x24(%rbp)
    1f50:	88 45 d8             	mov    %al,-0x28(%rbp)
/export/lustre-2/verify/work/hjm/RTPG/RTG/rpg_source/src/fplib/gs_fplib.cpp:709
    1f53:	48 8d 55 f7          	lea    -0x9(%rbp),%rdx
    1f57:	48 8b 4d e0          	mov    -0x20(%rbp),%rcx
    1f5b:	48 8b 45 e8          	mov    -0x18(%rbp),%rax
    1f5f:	48 89 ce             	mov    %rcx,%rsi
    1f62:	48 89 c7             	mov    %rax,%rdi
    1f65:	e8 00 00 00 00       	call   1f6a <fadd64+0x33>
    1f6a:	48 89 45 f8          	mov    %rax,-0x8(%rbp)
/export/lustre-2/verify/work/hjm/RTPG/RTG/rpg_source/src/fplib/gs_fplib.cpp:713
    1f6e:	48 8b 45 d0          	mov    -0x30(%rbp),%rax
    1f72:	c6 00 00             	movb   $0x0,(%rax)
/export/lustre-2/verify/work/hjm/RTPG/RTG/rpg_source/src/fplib/gs_fplib.cpp:714
    1f75:	48 8b 45 d0          	mov    -0x30(%rbp),%rax
    1f79:	0f b6 10             	movzbl (%rax),%edx
    1f7c:	0f b6 45 f7          	movzbl -0x9(%rbp),%eax
    1f80:	09 c2                	or     %eax,%edx
    1f82:	48 8b 45 d0          	mov    -0x30(%rbp),%rax
    1f86:	88 10                	mov    %dl,(%rax)
/export/lustre-2/verify/work/hjm/RTPG/RTG/rpg_source/src/fplib/gs_fplib.cpp:716
    1f88:	48 8b 45 f8          	mov    -0x8(%rbp),%rax
/export/lustre-2/verify/work/hjm/RTPG/RTG/rpg_source/src/fplib/gs_fplib.cpp:717
    1f8c:	c9                   	leave  
    1f8d:	c3                   	ret    

0000000000001f8e <fmul32>:
fmul32():
/export/lustre-2/verify/work/hjm/RTPG/RTG/rpg_source/src/fplib/gs_fplib.cpp:720
    1f8e:	55                   	push   %rbp
    1f8f:	48 89 e5             	mov    %rsp,%rbp
    1f92:	48 83 ec 30          	sub    $0x30,%rsp
    1f96:	89 7d ec             	mov    %edi,-0x14(%rbp)
    1f99:	89 75 e8             	mov    %esi,-0x18(%rbp)
    1f9c:	89 c8                	mov    %ecx,%eax
    1f9e:	4c 89 45 d8          	mov    %r8,-0x28(%rbp)
    1fa2:	88 55 e4             	mov    %dl,-0x1c(%rbp)
    1fa5:	88 45 e0             	mov    %al,-0x20(%rbp)
/export/lustre-2/verify/work/hjm/RTPG/RTG/rpg_source/src/fplib/gs_fplib.cpp:722
    1fa8:	48 8d 55 fb          	lea    -0x5(%rbp),%rdx
    1fac:	8b 4d e8             	mov    -0x18(%rbp),%ecx
    1faf:	8b 45 ec             	mov    -0x14(%rbp),%eax
    1fb2:	89 ce                	mov    %ecx,%esi
    1fb4:	89 c7                	mov    %eax,%edi
    1fb6:	e8 00 00 00 00       	call   1fbb <fmul32+0x2d>
    1fbb:	89 45 fc             	mov    %eax,-0x4(%rbp)
/export/lustre-2/verify/work/hjm/RTPG/RTG/rpg_source/src/fplib/gs_fplib.cpp:726
    1fbe:	48 8b 45 d8          	mov    -0x28(%rbp),%rax
    1fc2:	c6 00 00             	movb   $0x0,(%rax)
/export/lustre-2/verify/work/hjm/RTPG/RTG/rpg_source/src/fplib/gs_fplib.cpp:727
    1fc5:	48 8b 45 d8          	mov    -0x28(%rbp),%rax
    1fc9:	0f b6 10             	movzbl (%rax),%edx
    1fcc:	0f b6 45 fb          	movzbl -0x5(%rbp),%eax
    1fd0:	09 c2                	or     %eax,%edx
    1fd2:	48 8b 45 d8          	mov    -0x28(%rbp),%rax
    1fd6:	88 10                	mov    %dl,(%rax)
/export/lustre-2/verify/work/hjm/RTPG/RTG/rpg_source/src/fplib/gs_fplib.cpp:729
    1fd8:	8b 45 fc             	mov    -0x4(%rbp),%eax
/export/lustre-2/verify/work/hjm/RTPG/RTG/rpg_source/src/fplib/gs_fplib.cpp:730
    1fdb:	c9                   	leave  
    1fdc:	c3                   	ret    

0000000000001fdd <fmul64>:
fmul64():
/export/lustre-2/verify/work/hjm/RTPG/RTG/rpg_source/src/fplib/gs_fplib.cpp:733
    1fdd:	55                   	push   %rbp
    1fde:	48 89 e5             	mov    %rsp,%rbp
    1fe1:	48 83 ec 30          	sub    $0x30,%rsp
    1fe5:	48 89 7d e8          	mov    %rdi,-0x18(%rbp)
    1fe9:	48 89 75 e0          	mov    %rsi,-0x20(%rbp)
    1fed:	89 c8                	mov    %ecx,%eax
    1fef:	4c 89 45 d0          	mov    %r8,-0x30(%rbp)
    1ff3:	88 55 dc             	mov    %dl,-0x24(%rbp)
    1ff6:	88 45 d8             	mov    %al,-0x28(%rbp)
/export/lustre-2/verify/work/hjm/RTPG/RTG/rpg_source/src/fplib/gs_fplib.cpp:735
    1ff9:	48 8d 55 f7          	lea    -0x9(%rbp),%rdx
    1ffd:	48 8b 4d e0          	mov    -0x20(%rbp),%rcx
    2001:	48 8b 45 e8          	mov    -0x18(%rbp),%rax
    2005:	48 89 ce             	mov    %rcx,%rsi
    2008:	48 89 c7             	mov    %rax,%rdi
    200b:	e8 00 00 00 00       	call   2010 <fmul64+0x33>
    2010:	48 89 45 f8          	mov    %rax,-0x8(%rbp)
/export/lustre-2/verify/work/hjm/RTPG/RTG/rpg_source/src/fplib/gs_fplib.cpp:739
    2014:	48 8b 45 d0          	mov    -0x30(%rbp),%rax
    2018:	c6 00 00             	movb   $0x0,(%rax)
/export/lustre-2/verify/work/hjm/RTPG/RTG/rpg_source/src/fplib/gs_fplib.cpp:740
    201b:	48 8b 45 d0          	mov    -0x30(%rbp),%rax
    201f:	0f b6 10             	movzbl (%rax),%edx
    2022:	0f b6 45 f7          	movzbl -0x9(%rbp),%eax
    2026:	09 c2                	or     %eax,%edx
    2028:	48 8b 45 d0          	mov    -0x30(%rbp),%rax
    202c:	88 10                	mov    %dl,(%rax)
/export/lustre-2/verify/work/hjm/RTPG/RTG/rpg_source/src/fplib/gs_fplib.cpp:742
    202e:	48 8b 45 f8          	mov    -0x8(%rbp),%rax
/export/lustre-2/verify/work/hjm/RTPG/RTG/rpg_source/src/fplib/gs_fplib.cpp:743
    2032:	c9                   	leave  
    2033:	c3                   	ret    

0000000000002034 <fmul_add32>:
fmul_add32():
/export/lustre-2/verify/work/hjm/RTPG/RTG/rpg_source/src/fplib/gs_fplib.cpp:746
    2034:	55                   	push   %rbp
    2035:	48 89 e5             	mov    %rsp,%rbp
    2038:	48 83 ec 30          	sub    $0x30,%rsp
    203c:	89 7d ec             	mov    %edi,-0x14(%rbp)
    203f:	89 75 e8             	mov    %esi,-0x18(%rbp)
    2042:	89 55 e4             	mov    %edx,-0x1c(%rbp)
    2045:	89 c8                	mov    %ecx,%eax
    2047:	44 89 c2             	mov    %r8d,%edx
    204a:	4c 89 4d d0          	mov    %r9,-0x30(%rbp)
    204e:	88 45 e0             	mov    %al,-0x20(%rbp)
    2051:	88 55 dc             	mov    %dl,-0x24(%rbp)
/export/lustre-2/verify/work/hjm/RTPG/RTG/rpg_source/src/fplib/gs_fplib.cpp:748
    2054:	48 8d 4d fb          	lea    -0x5(%rbp),%rcx
    2058:	8b 55 e4             	mov    -0x1c(%rbp),%edx
    205b:	8b 75 e8             	mov    -0x18(%rbp),%esi
    205e:	8b 45 ec             	mov    -0x14(%rbp),%eax
    2061:	89 c7                	mov    %eax,%edi
    2063:	e8 00 00 00 00       	call   2068 <fmul_add32+0x34>
    2068:	89 45 fc             	mov    %eax,-0x4(%rbp)
/export/lustre-2/verify/work/hjm/RTPG/RTG/rpg_source/src/fplib/gs_fplib.cpp:752
    206b:	48 8b 45 d0          	mov    -0x30(%rbp),%rax
    206f:	c6 00 00             	movb   $0x0,(%rax)
/export/lustre-2/verify/work/hjm/RTPG/RTG/rpg_source/src/fplib/gs_fplib.cpp:753
    2072:	48 8b 45 d0          	mov    -0x30(%rbp),%rax
    2076:	0f b6 10             	movzbl (%rax),%edx
    2079:	0f b6 45 fb          	movzbl -0x5(%rbp),%eax
    207d:	09 c2                	or     %eax,%edx
    207f:	48 8b 45 d0          	mov    -0x30(%rbp),%rax
    2083:	88 10                	mov    %dl,(%rax)
/export/lustre-2/verify/work/hjm/RTPG/RTG/rpg_source/src/fplib/gs_fplib.cpp:755
    2085:	8b 45 fc             	mov    -0x4(%rbp),%eax
/export/lustre-2/verify/work/hjm/RTPG/RTG/rpg_source/src/fplib/gs_fplib.cpp:756
    2088:	c9                   	leave  
    2089:	c3                   	ret    

000000000000208a <fmul_add64>:
fmul_add64():
/export/lustre-2/verify/work/hjm/RTPG/RTG/rpg_source/src/fplib/gs_fplib.cpp:759
    208a:	55                   	push   %rbp
    208b:	48 89 e5             	mov    %rsp,%rbp
    208e:	48 83 ec 40          	sub    $0x40,%rsp
    2092:	48 89 7d e8          	mov    %rdi,-0x18(%rbp)
    2096:	48 89 75 e0          	mov    %rsi,-0x20(%rbp)
    209a:	48 89 55 d8          	mov    %rdx,-0x28(%rbp)
    209e:	89 c8                	mov    %ecx,%eax
    20a0:	44 89 c2             	mov    %r8d,%edx
    20a3:	4c 89 4d c8          	mov    %r9,-0x38(%rbp)
    20a7:	88 45 d4             	mov    %al,-0x2c(%rbp)
    20aa:	88 55 d0             	mov    %dl,-0x30(%rbp)
/export/lustre-2/verify/work/hjm/RTPG/RTG/rpg_source/src/fplib/gs_fplib.cpp:761
    20ad:	48 8d 4d f7          	lea    -0x9(%rbp),%rcx
    20b1:	48 8b 55 d8          	mov    -0x28(%rbp),%rdx
    20b5:	48 8b 75 e0          	mov    -0x20(%rbp),%rsi
    20b9:	48 8b 45 e8          	mov    -0x18(%rbp),%rax
    20bd:	48 89 c7             	mov    %rax,%rdi
    20c0:	e8 00 00 00 00       	call   20c5 <fmul_add64+0x3b>
    20c5:	48 89 45 f8          	mov    %rax,-0x8(%rbp)
/export/lustre-2/verify/work/hjm/RTPG/RTG/rpg_source/src/fplib/gs_fplib.cpp:765
    20c9:	48 8b 45 c8          	mov    -0x38(%rbp),%rax
    20cd:	c6 00 00             	movb   $0x0,(%rax)
/export/lustre-2/verify/work/hjm/RTPG/RTG/rpg_source/src/fplib/gs_fplib.cpp:766
    20d0:	48 8b 45 c8          	mov    -0x38(%rbp),%rax
    20d4:	0f b6 10             	movzbl (%rax),%edx
    20d7:	0f b6 45 f7          	movzbl -0x9(%rbp),%eax
    20db:	09 c2                	or     %eax,%edx
    20dd:	48 8b 45 c8          	mov    -0x38(%rbp),%rax
    20e1:	88 10                	mov    %dl,(%rax)
/export/lustre-2/verify/work/hjm/RTPG/RTG/rpg_source/src/fplib/gs_fplib.cpp:768
    20e3:	48 8b 45 f8          	mov    -0x8(%rbp),%rax
/export/lustre-2/verify/work/hjm/RTPG/RTG/rpg_source/src/fplib/gs_fplib.cpp:769
    20e7:	c9                   	leave  
    20e8:	c3                   	ret    

00000000000020e9 <fmul_sub32>:
fmul_sub32():
/export/lustre-2/verify/work/hjm/RTPG/RTG/rpg_source/src/fplib/gs_fplib.cpp:772
    20e9:	55                   	push   %rbp
    20ea:	48 89 e5             	mov    %rsp,%rbp
    20ed:	48 83 ec 30          	sub    $0x30,%rsp
    20f1:	89 7d ec             	mov    %edi,-0x14(%rbp)
    20f4:	89 75 e8             	mov    %esi,-0x18(%rbp)
    20f7:	89 55 e4             	mov    %edx,-0x1c(%rbp)
    20fa:	89 c8                	mov    %ecx,%eax
    20fc:	44 89 c2             	mov    %r8d,%edx
    20ff:	4c 89 4d d0          	mov    %r9,-0x30(%rbp)
    2103:	88 45 e0             	mov    %al,-0x20(%rbp)
    2106:	88 55 dc             	mov    %dl,-0x24(%rbp)
/export/lustre-2/verify/work/hjm/RTPG/RTG/rpg_source/src/fplib/gs_fplib.cpp:774
    2109:	48 8d 4d fb          	lea    -0x5(%rbp),%rcx
    210d:	8b 55 e4             	mov    -0x1c(%rbp),%edx
    2110:	8b 75 e8             	mov    -0x18(%rbp),%esi
    2113:	8b 45 ec             	mov    -0x14(%rbp),%eax
    2116:	89 c7                	mov    %eax,%edi
    2118:	e8 00 00 00 00       	call   211d <fmul_sub32+0x34>
    211d:	89 45 fc             	mov    %eax,-0x4(%rbp)
/export/lustre-2/verify/work/hjm/RTPG/RTG/rpg_source/src/fplib/gs_fplib.cpp:778
    2120:	48 8b 45 d0          	mov    -0x30(%rbp),%rax
    2124:	c6 00 00             	movb   $0x0,(%rax)
/export/lustre-2/verify/work/hjm/RTPG/RTG/rpg_source/src/fplib/gs_fplib.cpp:779
    2127:	48 8b 45 d0          	mov    -0x30(%rbp),%rax
    212b:	0f b6 10             	movzbl (%rax),%edx
    212e:	0f b6 45 fb          	movzbl -0x5(%rbp),%eax
    2132:	09 c2                	or     %eax,%edx
    2134:	48 8b 45 d0          	mov    -0x30(%rbp),%rax
    2138:	88 10                	mov    %dl,(%rax)
/export/lustre-2/verify/work/hjm/RTPG/RTG/rpg_source/src/fplib/gs_fplib.cpp:781
    213a:	8b 45 fc             	mov    -0x4(%rbp),%eax
/export/lustre-2/verify/work/hjm/RTPG/RTG/rpg_source/src/fplib/gs_fplib.cpp:782
    213d:	c9                   	leave  
    213e:	c3                   	ret    

000000000000213f <fmul_sub64>:
fmul_sub64():
/export/lustre-2/verify/work/hjm/RTPG/RTG/rpg_source/src/fplib/gs_fplib.cpp:785
    213f:	55                   	push   %rbp
    2140:	48 89 e5             	mov    %rsp,%rbp
    2143:	48 83 ec 40          	sub    $0x40,%rsp
    2147:	48 89 7d e8          	mov    %rdi,-0x18(%rbp)
    214b:	48 89 75 e0          	mov    %rsi,-0x20(%rbp)
    214f:	48 89 55 d8          	mov    %rdx,-0x28(%rbp)
    2153:	89 c8                	mov    %ecx,%eax
    2155:	44 89 c2             	mov    %r8d,%edx
    2158:	4c 89 4d c8          	mov    %r9,-0x38(%rbp)
    215c:	88 45 d4             	mov    %al,-0x2c(%rbp)
    215f:	88 55 d0             	mov    %dl,-0x30(%rbp)
/export/lustre-2/verify/work/hjm/RTPG/RTG/rpg_source/src/fplib/gs_fplib.cpp:787
    2162:	48 8d 4d f7          	lea    -0x9(%rbp),%rcx
    2166:	48 8b 55 d8          	mov    -0x28(%rbp),%rdx
    216a:	48 8b 75 e0          	mov    -0x20(%rbp),%rsi
    216e:	48 8b 45 e8          	mov    -0x18(%rbp),%rax
    2172:	48 89 c7             	mov    %rax,%rdi
    2175:	e8 00 00 00 00       	call   217a <fmul_sub64+0x3b>
    217a:	48 89 45 f8          	mov    %rax,-0x8(%rbp)
/export/lustre-2/verify/work/hjm/RTPG/RTG/rpg_source/src/fplib/gs_fplib.cpp:791
    217e:	48 8b 45 c8          	mov    -0x38(%rbp),%rax
    2182:	c6 00 00             	movb   $0x0,(%rax)
/export/lustre-2/verify/work/hjm/RTPG/RTG/rpg_source/src/fplib/gs_fplib.cpp:792
    2185:	48 8b 45 c8          	mov    -0x38(%rbp),%rax
    2189:	0f b6 10             	movzbl (%rax),%edx
    218c:	0f b6 45 f7          	movzbl -0x9(%rbp),%eax
    2190:	09 c2                	or     %eax,%edx
    2192:	48 8b 45 c8          	mov    -0x38(%rbp),%rax
    2196:	88 10                	mov    %dl,(%rax)
/export/lustre-2/verify/work/hjm/RTPG/RTG/rpg_source/src/fplib/gs_fplib.cpp:794
    2198:	48 8b 45 f8          	mov    -0x8(%rbp),%rax
/export/lustre-2/verify/work/hjm/RTPG/RTG/rpg_source/src/fplib/gs_fplib.cpp:795
    219c:	c9                   	leave  
    219d:	c3                   	ret    

000000000000219e <fdiv32>:
fdiv32():
/export/lustre-2/verify/work/hjm/RTPG/RTG/rpg_source/src/fplib/gs_fplib.cpp:798
    219e:	55                   	push   %rbp
    219f:	48 89 e5             	mov    %rsp,%rbp
    21a2:	48 83 ec 30          	sub    $0x30,%rsp
    21a6:	89 7d ec             	mov    %edi,-0x14(%rbp)
    21a9:	89 75 e8             	mov    %esi,-0x18(%rbp)
    21ac:	89 c8                	mov    %ecx,%eax
    21ae:	4c 89 45 d8          	mov    %r8,-0x28(%rbp)
    21b2:	88 55 e4             	mov    %dl,-0x1c(%rbp)
    21b5:	88 45 e0             	mov    %al,-0x20(%rbp)
/export/lustre-2/verify/work/hjm/RTPG/RTG/rpg_source/src/fplib/gs_fplib.cpp:800
    21b8:	48 8d 55 fb          	lea    -0x5(%rbp),%rdx
    21bc:	8b 4d e8             	mov    -0x18(%rbp),%ecx
    21bf:	8b 45 ec             	mov    -0x14(%rbp),%eax
    21c2:	89 ce                	mov    %ecx,%esi
    21c4:	89 c7                	mov    %eax,%edi
    21c6:	e8 00 00 00 00       	call   21cb <fdiv32+0x2d>
    21cb:	89 45 fc             	mov    %eax,-0x4(%rbp)
/export/lustre-2/verify/work/hjm/RTPG/RTG/rpg_source/src/fplib/gs_fplib.cpp:804
    21ce:	48 8b 45 d8          	mov    -0x28(%rbp),%rax
    21d2:	c6 00 00             	movb   $0x0,(%rax)
/export/lustre-2/verify/work/hjm/RTPG/RTG/rpg_source/src/fplib/gs_fplib.cpp:805
    21d5:	48 8b 45 d8          	mov    -0x28(%rbp),%rax
    21d9:	0f b6 10             	movzbl (%rax),%edx
    21dc:	0f b6 45 fb          	movzbl -0x5(%rbp),%eax
    21e0:	09 c2                	or     %eax,%edx
    21e2:	48 8b 45 d8          	mov    -0x28(%rbp),%rax
    21e6:	88 10                	mov    %dl,(%rax)
/export/lustre-2/verify/work/hjm/RTPG/RTG/rpg_source/src/fplib/gs_fplib.cpp:807
    21e8:	8b 45 fc             	mov    -0x4(%rbp),%eax
/export/lustre-2/verify/work/hjm/RTPG/RTG/rpg_source/src/fplib/gs_fplib.cpp:808
    21eb:	c9                   	leave  
    21ec:	c3                   	ret    

00000000000021ed <fdiv64>:
fdiv64():
/export/lustre-2/verify/work/hjm/RTPG/RTG/rpg_source/src/fplib/gs_fplib.cpp:811
    21ed:	55                   	push   %rbp
    21ee:	48 89 e5             	mov    %rsp,%rbp
    21f1:	48 83 ec 30          	sub    $0x30,%rsp
    21f5:	48 89 7d e8          	mov    %rdi,-0x18(%rbp)
    21f9:	48 89 75 e0          	mov    %rsi,-0x20(%rbp)
    21fd:	89 c8                	mov    %ecx,%eax
    21ff:	4c 89 45 d0          	mov    %r8,-0x30(%rbp)
    2203:	88 55 dc             	mov    %dl,-0x24(%rbp)
    2206:	88 45 d8             	mov    %al,-0x28(%rbp)
/export/lustre-2/verify/work/hjm/RTPG/RTG/rpg_source/src/fplib/gs_fplib.cpp:813
    2209:	48 8d 55 f7          	lea    -0x9(%rbp),%rdx
    220d:	48 8b 4d e0          	mov    -0x20(%rbp),%rcx
    2211:	48 8b 45 e8          	mov    -0x18(%rbp),%rax
    2215:	48 89 ce             	mov    %rcx,%rsi
    2218:	48 89 c7             	mov    %rax,%rdi
    221b:	e8 00 00 00 00       	call   2220 <fdiv64+0x33>
    2220:	48 89 45 f8          	mov    %rax,-0x8(%rbp)
/export/lustre-2/verify/work/hjm/RTPG/RTG/rpg_source/src/fplib/gs_fplib.cpp:817
    2224:	48 8b 45 d0          	mov    -0x30(%rbp),%rax
    2228:	c6 00 00             	movb   $0x0,(%rax)
/export/lustre-2/verify/work/hjm/RTPG/RTG/rpg_source/src/fplib/gs_fplib.cpp:818
    222b:	48 8b 45 d0          	mov    -0x30(%rbp),%rax
    222f:	0f b6 10             	movzbl (%rax),%edx
    2232:	0f b6 45 f7          	movzbl -0x9(%rbp),%eax
    2236:	09 c2                	or     %eax,%edx
    2238:	48 8b 45 d0          	mov    -0x30(%rbp),%rax
    223c:	88 10                	mov    %dl,(%rax)
/export/lustre-2/verify/work/hjm/RTPG/RTG/rpg_source/src/fplib/gs_fplib.cpp:820
    223e:	48 8b 45 f8          	mov    -0x8(%rbp),%rax
/export/lustre-2/verify/work/hjm/RTPG/RTG/rpg_source/src/fplib/gs_fplib.cpp:821
    2242:	c9                   	leave  
    2243:	c3                   	ret    

0000000000002244 <set_rounding_mode>:
set_rounding_mode():
/export/lustre-2/verify/work/hjm/RTPG/RTG/rpg_source/src/fplib/gs_fplib.cpp:824
    2244:	55                   	push   %rbp
    2245:	48 89 e5             	mov    %rsp,%rbp
    2248:	48 83 ec 10          	sub    $0x10,%rsp
    224c:	89 f8                	mov    %edi,%eax
    224e:	88 45 fc             	mov    %al,-0x4(%rbp)
/export/lustre-2/verify/work/hjm/RTPG/RTG/rpg_source/src/fplib/gs_fplib.cpp:825
    2251:	0f b6 45 fc          	movzbl -0x4(%rbp),%eax
    2255:	89 c7                	mov    %eax,%edi
    2257:	e8 00 00 00 00       	call   225c <set_rounding_mode+0x18>
/export/lustre-2/verify/work/hjm/RTPG/RTG/rpg_source/src/fplib/gs_fplib.cpp:826
    225c:	90                   	nop
    225d:	c9                   	leave  
    225e:	c3                   	ret    

000000000000225f <fscale32>:
fscale32():
/export/lustre-2/verify/work/hjm/RTPG/RTG/rpg_source/src/fplib/gs_fplib.cpp:829
    225f:	55                   	push   %rbp
    2260:	48 89 e5             	mov    %rsp,%rbp
    2263:	48 83 ec 30          	sub    $0x30,%rsp
    2267:	89 7d ec             	mov    %edi,-0x14(%rbp)
    226a:	89 75 e8             	mov    %esi,-0x18(%rbp)
    226d:	89 c8                	mov    %ecx,%eax
    226f:	4c 89 45 d8          	mov    %r8,-0x28(%rbp)
    2273:	88 55 e4             	mov    %dl,-0x1c(%rbp)
    2276:	88 45 e0             	mov    %al,-0x20(%rbp)
/export/lustre-2/verify/work/hjm/RTPG/RTG/rpg_source/src/fplib/gs_fplib.cpp:831
    2279:	48 8d 55 fb          	lea    -0x5(%rbp),%rdx
    227d:	8b 4d e8             	mov    -0x18(%rbp),%ecx
    2280:	8b 45 ec             	mov    -0x14(%rbp),%eax
    2283:	89 ce                	mov    %ecx,%esi
    2285:	89 c7                	mov    %eax,%edi
    2287:	e8 00 00 00 00       	call   228c <fscale32+0x2d>
    228c:	89 45 fc             	mov    %eax,-0x4(%rbp)
/export/lustre-2/verify/work/hjm/RTPG/RTG/rpg_source/src/fplib/gs_fplib.cpp:835
    228f:	48 8b 45 d8          	mov    -0x28(%rbp),%rax
    2293:	c6 00 00             	movb   $0x0,(%rax)
/export/lustre-2/verify/work/hjm/RTPG/RTG/rpg_source/src/fplib/gs_fplib.cpp:836
    2296:	48 8b 45 d8          	mov    -0x28(%rbp),%rax
    229a:	0f b6 10             	movzbl (%rax),%edx
    229d:	0f b6 45 fb          	movzbl -0x5(%rbp),%eax
    22a1:	09 c2                	or     %eax,%edx
    22a3:	48 8b 45 d8          	mov    -0x28(%rbp),%rax
    22a7:	88 10                	mov    %dl,(%rax)
/export/lustre-2/verify/work/hjm/RTPG/RTG/rpg_source/src/fplib/gs_fplib.cpp:838
    22a9:	8b 45 fc             	mov    -0x4(%rbp),%eax
/export/lustre-2/verify/work/hjm/RTPG/RTG/rpg_source/src/fplib/gs_fplib.cpp:839
    22ac:	c9                   	leave  
    22ad:	c3                   	ret    

00000000000022ae <fscale64>:
fscale64():
/export/lustre-2/verify/work/hjm/RTPG/RTG/rpg_source/src/fplib/gs_fplib.cpp:842
    22ae:	55                   	push   %rbp
    22af:	48 89 e5             	mov    %rsp,%rbp
    22b2:	48 83 ec 30          	sub    $0x30,%rsp
    22b6:	48 89 7d e8          	mov    %rdi,-0x18(%rbp)
    22ba:	48 89 75 e0          	mov    %rsi,-0x20(%rbp)
    22be:	89 c8                	mov    %ecx,%eax
    22c0:	4c 89 45 d0          	mov    %r8,-0x30(%rbp)
    22c4:	88 55 dc             	mov    %dl,-0x24(%rbp)
    22c7:	88 45 d8             	mov    %al,-0x28(%rbp)
/export/lustre-2/verify/work/hjm/RTPG/RTG/rpg_source/src/fplib/gs_fplib.cpp:844
    22ca:	48 8d 55 f7          	lea    -0x9(%rbp),%rdx
    22ce:	48 8b 4d e0          	mov    -0x20(%rbp),%rcx
    22d2:	48 8b 45 e8          	mov    -0x18(%rbp),%rax
    22d6:	48 89 ce             	mov    %rcx,%rsi
    22d9:	48 89 c7             	mov    %rax,%rdi
    22dc:	e8 00 00 00 00       	call   22e1 <fscale64+0x33>
    22e1:	48 89 45 f8          	mov    %rax,-0x8(%rbp)
/export/lustre-2/verify/work/hjm/RTPG/RTG/rpg_source/src/fplib/gs_fplib.cpp:848
    22e5:	48 8b 45 d0          	mov    -0x30(%rbp),%rax
    22e9:	c6 00 00             	movb   $0x0,(%rax)
/export/lustre-2/verify/work/hjm/RTPG/RTG/rpg_source/src/fplib/gs_fplib.cpp:849
    22ec:	48 8b 45 d0          	mov    -0x30(%rbp),%rax
    22f0:	0f b6 10             	movzbl (%rax),%edx
    22f3:	0f b6 45 f7          	movzbl -0x9(%rbp),%eax
    22f7:	09 c2                	or     %eax,%edx
    22f9:	48 8b 45 d0          	mov    -0x30(%rbp),%rax
    22fd:	88 10                	mov    %dl,(%rax)
/export/lustre-2/verify/work/hjm/RTPG/RTG/rpg_source/src/fplib/gs_fplib.cpp:851
    22ff:	48 8b 45 f8          	mov    -0x8(%rbp),%rax
/export/lustre-2/verify/work/hjm/RTPG/RTG/rpg_source/src/fplib/gs_fplib.cpp:852
    2303:	c9                   	leave  
    2304:	c3                   	ret    

0000000000002305 <flog32>:
flog32():
/export/lustre-2/verify/work/hjm/RTPG/RTG/rpg_source/src/fplib/gs_fplib.cpp:855
    2305:	55                   	push   %rbp
    2306:	48 89 e5             	mov    %rsp,%rbp
    2309:	48 83 ec 30          	sub    $0x30,%rsp
    230d:	89 7d ec             	mov    %edi,-0x14(%rbp)
    2310:	89 d0                	mov    %edx,%eax
    2312:	48 89 4d d8          	mov    %rcx,-0x28(%rbp)
    2316:	40 88 75 e8          	mov    %sil,-0x18(%rbp)
    231a:	88 45 e4             	mov    %al,-0x1c(%rbp)
/export/lustre-2/verify/work/hjm/RTPG/RTG/rpg_source/src/fplib/gs_fplib.cpp:857
    231d:	48 8d 55 fb          	lea    -0x5(%rbp),%rdx
    2321:	8b 45 ec             	mov    -0x14(%rbp),%eax
    2324:	48 89 d6             	mov    %rdx,%rsi
    2327:	89 c7                	mov    %eax,%edi
    2329:	e8 00 00 00 00       	call   232e <flog32+0x29>
    232e:	89 45 fc             	mov    %eax,-0x4(%rbp)
/export/lustre-2/verify/work/hjm/RTPG/RTG/rpg_source/src/fplib/gs_fplib.cpp:861
    2331:	48 8b 45 d8          	mov    -0x28(%rbp),%rax
    2335:	c6 00 00             	movb   $0x0,(%rax)
/export/lustre-2/verify/work/hjm/RTPG/RTG/rpg_source/src/fplib/gs_fplib.cpp:862
    2338:	48 8b 45 d8          	mov    -0x28(%rbp),%rax
    233c:	0f b6 10             	movzbl (%rax),%edx
    233f:	0f b6 45 fb          	movzbl -0x5(%rbp),%eax
    2343:	09 c2                	or     %eax,%edx
    2345:	48 8b 45 d8          	mov    -0x28(%rbp),%rax
    2349:	88 10                	mov    %dl,(%rax)
/export/lustre-2/verify/work/hjm/RTPG/RTG/rpg_source/src/fplib/gs_fplib.cpp:864
    234b:	8b 45 fc             	mov    -0x4(%rbp),%eax
/export/lustre-2/verify/work/hjm/RTPG/RTG/rpg_source/src/fplib/gs_fplib.cpp:865
    234e:	c9                   	leave  
    234f:	c3                   	ret    

0000000000002350 <flog64>:
flog64():
/export/lustre-2/verify/work/hjm/RTPG/RTG/rpg_source/src/fplib/gs_fplib.cpp:868
    2350:	55                   	push   %rbp
    2351:	48 89 e5             	mov    %rsp,%rbp
    2354:	48 83 ec 30          	sub    $0x30,%rsp
    2358:	48 89 7d e8          	mov    %rdi,-0x18(%rbp)
    235c:	89 d0                	mov    %edx,%eax
    235e:	48 89 4d d8          	mov    %rcx,-0x28(%rbp)
    2362:	40 88 75 e4          	mov    %sil,-0x1c(%rbp)
    2366:	88 45 e0             	mov    %al,-0x20(%rbp)
/export/lustre-2/verify/work/hjm/RTPG/RTG/rpg_source/src/fplib/gs_fplib.cpp:870
    2369:	48 8d 55 f7          	lea    -0x9(%rbp),%rdx
    236d:	48 8b 45 e8          	mov    -0x18(%rbp),%rax
    2371:	48 89 d6             	mov    %rdx,%rsi
    2374:	48 89 c7             	mov    %rax,%rdi
    2377:	e8 00 00 00 00       	call   237c <flog64+0x2c>
    237c:	48 89 45 f8          	mov    %rax,-0x8(%rbp)
/export/lustre-2/verify/work/hjm/RTPG/RTG/rpg_source/src/fplib/gs_fplib.cpp:874
    2380:	48 8b 45 d8          	mov    -0x28(%rbp),%rax
    2384:	c6 00 00             	movb   $0x0,(%rax)
/export/lustre-2/verify/work/hjm/RTPG/RTG/rpg_source/src/fplib/gs_fplib.cpp:875
    2387:	48 8b 45 d8          	mov    -0x28(%rbp),%rax
    238b:	0f b6 10             	movzbl (%rax),%edx
    238e:	0f b6 45 f7          	movzbl -0x9(%rbp),%eax
    2392:	09 c2                	or     %eax,%edx
    2394:	48 8b 45 d8          	mov    -0x28(%rbp),%rax
    2398:	88 10                	mov    %dl,(%rax)
/export/lustre-2/verify/work/hjm/RTPG/RTG/rpg_source/src/fplib/gs_fplib.cpp:877
    239a:	48 8b 45 f8          	mov    -0x8(%rbp),%rax
/export/lustre-2/verify/work/hjm/RTPG/RTG/rpg_source/src/fplib/gs_fplib.cpp:878
    239e:	c9                   	leave  
    239f:	c3                   	ret    

00000000000023a0 <fclass32>:
fclass32():
/export/lustre-2/verify/work/hjm/RTPG/RTG/rpg_source/src/fplib/gs_fplib.cpp:881
    23a0:	55                   	push   %rbp
    23a1:	48 89 e5             	mov    %rsp,%rbp
    23a4:	48 83 ec 20          	sub    $0x20,%rsp
    23a8:	89 7d ec             	mov    %edi,-0x14(%rbp)
/export/lustre-2/verify/work/hjm/RTPG/RTG/rpg_source/src/fplib/gs_fplib.cpp:882
    23ab:	c7 45 fc 00 00 00 00 	movl   $0x0,-0x4(%rbp)
/export/lustre-2/verify/work/hjm/RTPG/RTG/rpg_source/src/fplib/gs_fplib.cpp:884
    23b2:	8b 45 ec             	mov    -0x14(%rbp),%eax
    23b5:	48 8d 55 fa          	lea    -0x6(%rbp),%rdx
    23b9:	48 89 d6             	mov    %rdx,%rsi
    23bc:	48 89 c7             	mov    %rax,%rdi
    23bf:	e8 00 00 00 00       	call   23c4 <fclass32+0x24>
    23c4:	88 45 fb             	mov    %al,-0x5(%rbp)
/export/lustre-2/verify/work/hjm/RTPG/RTG/rpg_source/src/fplib/gs_fplib.cpp:886
    23c7:	8b 45 ec             	mov    -0x14(%rbp),%eax
    23ca:	89 c7                	mov    %eax,%edi
    23cc:	e8 00 00 00 00       	call   23d1 <fclass32+0x31>
    23d1:	84 c0                	test   %al,%al
    23d3:	74 09                	je     23de <fclass32+0x3e>
/export/lustre-2/verify/work/hjm/RTPG/RTG/rpg_source/src/fplib/gs_fplib.cpp:887
    23d5:	83 4d fc 01          	orl    $0x1,-0x4(%rbp)
    23d9:	e9 3d 01 00 00       	jmp    251b <fclass32+0x17b>
/export/lustre-2/verify/work/hjm/RTPG/RTG/rpg_source/src/fplib/gs_fplib.cpp:888
    23de:	8b 45 ec             	mov    -0x14(%rbp),%eax
    23e1:	89 c7                	mov    %eax,%edi
    23e3:	e8 00 00 00 00       	call   23e8 <fclass32+0x48>
    23e8:	84 c0                	test   %al,%al
    23ea:	74 09                	je     23f5 <fclass32+0x55>
/export/lustre-2/verify/work/hjm/RTPG/RTG/rpg_source/src/fplib/gs_fplib.cpp:889
    23ec:	83 4d fc 02          	orl    $0x2,-0x4(%rbp)
    23f0:	e9 26 01 00 00       	jmp    251b <fclass32+0x17b>
/export/lustre-2/verify/work/hjm/RTPG/RTG/rpg_source/src/fplib/gs_fplib.cpp:890
    23f5:	80 7d fb 00          	cmpb   $0x0,-0x5(%rbp)
    23f9:	74 11                	je     240c <fclass32+0x6c>
/export/lustre-2/verify/work/hjm/RTPG/RTG/rpg_source/src/fplib/gs_fplib.cpp:890 (discriminator 1)
    23fb:	0f b6 45 fa          	movzbl -0x6(%rbp),%eax
    23ff:	84 c0                	test   %al,%al
    2401:	74 09                	je     240c <fclass32+0x6c>
/export/lustre-2/verify/work/hjm/RTPG/RTG/rpg_source/src/fplib/gs_fplib.cpp:891
    2403:	83 4d fc 04          	orl    $0x4,-0x4(%rbp)
    2407:	e9 0f 01 00 00       	jmp    251b <fclass32+0x17b>
/export/lustre-2/verify/work/hjm/RTPG/RTG/rpg_source/src/fplib/gs_fplib.cpp:892
    240c:	8b 45 ec             	mov    -0x14(%rbp),%eax
    240f:	89 c7                	mov    %eax,%edi
    2411:	e8 00 00 00 00       	call   2416 <fclass32+0x76>
    2416:	84 c0                	test   %al,%al
    2418:	74 0f                	je     2429 <fclass32+0x89>
/export/lustre-2/verify/work/hjm/RTPG/RTG/rpg_source/src/fplib/gs_fplib.cpp:892 (discriminator 2)
    241a:	0f b6 45 fa          	movzbl -0x6(%rbp),%eax
    241e:	84 c0                	test   %al,%al
    2420:	74 07                	je     2429 <fclass32+0x89>
/export/lustre-2/verify/work/hjm/RTPG/RTG/rpg_source/src/fplib/gs_fplib.cpp:892 (discriminator 4)
    2422:	b8 01 00 00 00       	mov    $0x1,%eax
    2427:	eb 05                	jmp    242e <fclass32+0x8e>
/export/lustre-2/verify/work/hjm/RTPG/RTG/rpg_source/src/fplib/gs_fplib.cpp:892 (discriminator 5)
    2429:	b8 00 00 00 00       	mov    $0x0,%eax
/export/lustre-2/verify/work/hjm/RTPG/RTG/rpg_source/src/fplib/gs_fplib.cpp:892 (discriminator 7)
    242e:	84 c0                	test   %al,%al
    2430:	74 09                	je     243b <fclass32+0x9b>
/export/lustre-2/verify/work/hjm/RTPG/RTG/rpg_source/src/fplib/gs_fplib.cpp:893
    2432:	83 4d fc 08          	orl    $0x8,-0x4(%rbp)
    2436:	e9 e0 00 00 00       	jmp    251b <fclass32+0x17b>
/export/lustre-2/verify/work/hjm/RTPG/RTG/rpg_source/src/fplib/gs_fplib.cpp:894
    243b:	8b 45 ec             	mov    -0x14(%rbp),%eax
    243e:	be 00 00 00 00       	mov    $0x0,%esi
    2443:	89 c7                	mov    %eax,%edi
    2445:	e8 00 00 00 00       	call   244a <fclass32+0xaa>
    244a:	84 c0                	test   %al,%al
    244c:	74 0f                	je     245d <fclass32+0xbd>
/export/lustre-2/verify/work/hjm/RTPG/RTG/rpg_source/src/fplib/gs_fplib.cpp:894 (discriminator 2)
    244e:	0f b6 45 fa          	movzbl -0x6(%rbp),%eax
    2452:	84 c0                	test   %al,%al
    2454:	74 07                	je     245d <fclass32+0xbd>
/export/lustre-2/verify/work/hjm/RTPG/RTG/rpg_source/src/fplib/gs_fplib.cpp:894 (discriminator 4)
    2456:	b8 01 00 00 00       	mov    $0x1,%eax
    245b:	eb 05                	jmp    2462 <fclass32+0xc2>
/export/lustre-2/verify/work/hjm/RTPG/RTG/rpg_source/src/fplib/gs_fplib.cpp:894 (discriminator 5)
    245d:	b8 00 00 00 00       	mov    $0x0,%eax
/export/lustre-2/verify/work/hjm/RTPG/RTG/rpg_source/src/fplib/gs_fplib.cpp:894 (discriminator 7)
    2462:	84 c0                	test   %al,%al
    2464:	74 09                	je     246f <fclass32+0xcf>
/export/lustre-2/verify/work/hjm/RTPG/RTG/rpg_source/src/fplib/gs_fplib.cpp:895
    2466:	83 4d fc 10          	orl    $0x10,-0x4(%rbp)
    246a:	e9 ac 00 00 00       	jmp    251b <fclass32+0x17b>
/export/lustre-2/verify/work/hjm/RTPG/RTG/rpg_source/src/fplib/gs_fplib.cpp:896
    246f:	8b 45 ec             	mov    -0x14(%rbp),%eax
    2472:	89 c7                	mov    %eax,%edi
    2474:	e8 00 00 00 00       	call   2479 <fclass32+0xd9>
    2479:	84 c0                	test   %al,%al
    247b:	74 09                	je     2486 <fclass32+0xe6>
/export/lustre-2/verify/work/hjm/RTPG/RTG/rpg_source/src/fplib/gs_fplib.cpp:897
    247d:	83 4d fc 20          	orl    $0x20,-0x4(%rbp)
    2481:	e9 95 00 00 00       	jmp    251b <fclass32+0x17b>
/export/lustre-2/verify/work/hjm/RTPG/RTG/rpg_source/src/fplib/gs_fplib.cpp:898
    2486:	80 7d fb 00          	cmpb   $0x0,-0x5(%rbp)
    248a:	74 11                	je     249d <fclass32+0xfd>
/export/lustre-2/verify/work/hjm/RTPG/RTG/rpg_source/src/fplib/gs_fplib.cpp:898 (discriminator 1)
    248c:	0f b6 45 fa          	movzbl -0x6(%rbp),%eax
    2490:	83 f0 01             	xor    $0x1,%eax
    2493:	84 c0                	test   %al,%al
    2495:	74 06                	je     249d <fclass32+0xfd>
/export/lustre-2/verify/work/hjm/RTPG/RTG/rpg_source/src/fplib/gs_fplib.cpp:899
    2497:	83 4d fc 40          	orl    $0x40,-0x4(%rbp)
    249b:	eb 7e                	jmp    251b <fclass32+0x17b>
/export/lustre-2/verify/work/hjm/RTPG/RTG/rpg_source/src/fplib/gs_fplib.cpp:900
    249d:	8b 45 ec             	mov    -0x14(%rbp),%eax
    24a0:	89 c7                	mov    %eax,%edi
    24a2:	e8 00 00 00 00       	call   24a7 <fclass32+0x107>
    24a7:	84 c0                	test   %al,%al
    24a9:	74 12                	je     24bd <fclass32+0x11d>
/export/lustre-2/verify/work/hjm/RTPG/RTG/rpg_source/src/fplib/gs_fplib.cpp:900 (discriminator 2)
    24ab:	0f b6 45 fa          	movzbl -0x6(%rbp),%eax
    24af:	83 f0 01             	xor    $0x1,%eax
    24b2:	84 c0                	test   %al,%al
    24b4:	74 07                	je     24bd <fclass32+0x11d>
/export/lustre-2/verify/work/hjm/RTPG/RTG/rpg_source/src/fplib/gs_fplib.cpp:900 (discriminator 4)
    24b6:	b8 01 00 00 00       	mov    $0x1,%eax
    24bb:	eb 05                	jmp    24c2 <fclass32+0x122>
/export/lustre-2/verify/work/hjm/RTPG/RTG/rpg_source/src/fplib/gs_fplib.cpp:900 (discriminator 5)
    24bd:	b8 00 00 00 00       	mov    $0x0,%eax
/export/lustre-2/verify/work/hjm/RTPG/RTG/rpg_source/src/fplib/gs_fplib.cpp:900 (discriminator 7)
    24c2:	84 c0                	test   %al,%al
    24c4:	74 09                	je     24cf <fclass32+0x12f>
/export/lustre-2/verify/work/hjm/RTPG/RTG/rpg_source/src/fplib/gs_fplib.cpp:901
    24c6:	81 4d fc 80 00 00 00 	orl    $0x80,-0x4(%rbp)
    24cd:	eb 4c                	jmp    251b <fclass32+0x17b>
/export/lustre-2/verify/work/hjm/RTPG/RTG/rpg_source/src/fplib/gs_fplib.cpp:902
    24cf:	8b 45 ec             	mov    -0x14(%rbp),%eax
    24d2:	be 00 00 00 00       	mov    $0x0,%esi
    24d7:	89 c7                	mov    %eax,%edi
    24d9:	e8 00 00 00 00       	call   24de <fclass32+0x13e>
    24de:	84 c0                	test   %al,%al
    24e0:	74 12                	je     24f4 <fclass32+0x154>
/export/lustre-2/verify/work/hjm/RTPG/RTG/rpg_source/src/fplib/gs_fplib.cpp:902 (discriminator 2)
    24e2:	0f b6 45 fa          	movzbl -0x6(%rbp),%eax
    24e6:	83 f0 01             	xor    $0x1,%eax
    24e9:	84 c0                	test   %al,%al
    24eb:	74 07                	je     24f4 <fclass32+0x154>
/export/lustre-2/verify/work/hjm/RTPG/RTG/rpg_source/src/fplib/gs_fplib.cpp:902 (discriminator 4)
    24ed:	b8 01 00 00 00       	mov    $0x1,%eax
    24f2:	eb 05                	jmp    24f9 <fclass32+0x159>
/export/lustre-2/verify/work/hjm/RTPG/RTG/rpg_source/src/fplib/gs_fplib.cpp:902 (discriminator 5)
    24f4:	b8 00 00 00 00       	mov    $0x0,%eax
/export/lustre-2/verify/work/hjm/RTPG/RTG/rpg_source/src/fplib/gs_fplib.cpp:902 (discriminator 7)
    24f9:	84 c0                	test   %al,%al
    24fb:	74 09                	je     2506 <fclass32+0x166>
/export/lustre-2/verify/work/hjm/RTPG/RTG/rpg_source/src/fplib/gs_fplib.cpp:903
    24fd:	81 4d fc 00 01 00 00 	orl    $0x100,-0x4(%rbp)
    2504:	eb 15                	jmp    251b <fclass32+0x17b>
/export/lustre-2/verify/work/hjm/RTPG/RTG/rpg_source/src/fplib/gs_fplib.cpp:904
    2506:	8b 45 ec             	mov    -0x14(%rbp),%eax
    2509:	89 c7                	mov    %eax,%edi
    250b:	e8 00 00 00 00       	call   2510 <fclass32+0x170>
    2510:	84 c0                	test   %al,%al
    2512:	74 07                	je     251b <fclass32+0x17b>
/export/lustre-2/verify/work/hjm/RTPG/RTG/rpg_source/src/fplib/gs_fplib.cpp:905
    2514:	81 4d fc 00 02 00 00 	orl    $0x200,-0x4(%rbp)
/export/lustre-2/verify/work/hjm/RTPG/RTG/rpg_source/src/fplib/gs_fplib.cpp:907
    251b:	8b 45 fc             	mov    -0x4(%rbp),%eax
/export/lustre-2/verify/work/hjm/RTPG/RTG/rpg_source/src/fplib/gs_fplib.cpp:908
    251e:	c9                   	leave  
    251f:	c3                   	ret    

0000000000002520 <fclass64>:
fclass64():
/export/lustre-2/verify/work/hjm/RTPG/RTG/rpg_source/src/fplib/gs_fplib.cpp:911
    2520:	55                   	push   %rbp
    2521:	48 89 e5             	mov    %rsp,%rbp
    2524:	48 83 ec 20          	sub    $0x20,%rsp
    2528:	48 89 7d e8          	mov    %rdi,-0x18(%rbp)
/export/lustre-2/verify/work/hjm/RTPG/RTG/rpg_source/src/fplib/gs_fplib.cpp:912
    252c:	48 c7 45 f8 00 00 00 	movq   $0x0,-0x8(%rbp)
    2533:	00 
/export/lustre-2/verify/work/hjm/RTPG/RTG/rpg_source/src/fplib/gs_fplib.cpp:914
    2534:	48 8d 55 f6          	lea    -0xa(%rbp),%rdx
    2538:	48 8b 45 e8          	mov    -0x18(%rbp),%rax
    253c:	48 89 d6             	mov    %rdx,%rsi
    253f:	48 89 c7             	mov    %rax,%rdi
    2542:	e8 00 00 00 00       	call   2547 <fclass64+0x27>
    2547:	88 45 f7             	mov    %al,-0x9(%rbp)
/export/lustre-2/verify/work/hjm/RTPG/RTG/rpg_source/src/fplib/gs_fplib.cpp:916
    254a:	48 8b 45 e8          	mov    -0x18(%rbp),%rax
    254e:	48 89 c7             	mov    %rax,%rdi
    2551:	e8 00 00 00 00       	call   2556 <fclass64+0x36>
    2556:	84 c0                	test   %al,%al
    2558:	74 0a                	je     2564 <fclass64+0x44>
/export/lustre-2/verify/work/hjm/RTPG/RTG/rpg_source/src/fplib/gs_fplib.cpp:917
    255a:	48 83 4d f8 01       	orq    $0x1,-0x8(%rbp)
    255f:	e9 57 01 00 00       	jmp    26bb <fclass64+0x19b>
/export/lustre-2/verify/work/hjm/RTPG/RTG/rpg_source/src/fplib/gs_fplib.cpp:918
    2564:	48 8b 45 e8          	mov    -0x18(%rbp),%rax
    2568:	48 89 c7             	mov    %rax,%rdi
    256b:	e8 00 00 00 00       	call   2570 <fclass64+0x50>
    2570:	84 c0                	test   %al,%al
    2572:	74 0a                	je     257e <fclass64+0x5e>
/export/lustre-2/verify/work/hjm/RTPG/RTG/rpg_source/src/fplib/gs_fplib.cpp:919
    2574:	48 83 4d f8 02       	orq    $0x2,-0x8(%rbp)
    2579:	e9 3d 01 00 00       	jmp    26bb <fclass64+0x19b>
/export/lustre-2/verify/work/hjm/RTPG/RTG/rpg_source/src/fplib/gs_fplib.cpp:920
    257e:	80 7d f7 00          	cmpb   $0x0,-0x9(%rbp)
    2582:	74 12                	je     2596 <fclass64+0x76>
/export/lustre-2/verify/work/hjm/RTPG/RTG/rpg_source/src/fplib/gs_fplib.cpp:920 (discriminator 1)
    2584:	0f b6 45 f6          	movzbl -0xa(%rbp),%eax
    2588:	84 c0                	test   %al,%al
    258a:	74 0a                	je     2596 <fclass64+0x76>
/export/lustre-2/verify/work/hjm/RTPG/RTG/rpg_source/src/fplib/gs_fplib.cpp:921
    258c:	48 83 4d f8 04       	orq    $0x4,-0x8(%rbp)
    2591:	e9 25 01 00 00       	jmp    26bb <fclass64+0x19b>
/export/lustre-2/verify/work/hjm/RTPG/RTG/rpg_source/src/fplib/gs_fplib.cpp:922
    2596:	48 8b 45 e8          	mov    -0x18(%rbp),%rax
    259a:	48 89 c7             	mov    %rax,%rdi
    259d:	e8 00 00 00 00       	call   25a2 <fclass64+0x82>
    25a2:	84 c0                	test   %al,%al
    25a4:	74 0f                	je     25b5 <fclass64+0x95>
/export/lustre-2/verify/work/hjm/RTPG/RTG/rpg_source/src/fplib/gs_fplib.cpp:922 (discriminator 2)
    25a6:	0f b6 45 f6          	movzbl -0xa(%rbp),%eax
    25aa:	84 c0                	test   %al,%al
    25ac:	74 07                	je     25b5 <fclass64+0x95>
/export/lustre-2/verify/work/hjm/RTPG/RTG/rpg_source/src/fplib/gs_fplib.cpp:922 (discriminator 4)
    25ae:	b8 01 00 00 00       	mov    $0x1,%eax
    25b3:	eb 05                	jmp    25ba <fclass64+0x9a>
/export/lustre-2/verify/work/hjm/RTPG/RTG/rpg_source/src/fplib/gs_fplib.cpp:922 (discriminator 5)
    25b5:	b8 00 00 00 00       	mov    $0x0,%eax
/export/lustre-2/verify/work/hjm/RTPG/RTG/rpg_source/src/fplib/gs_fplib.cpp:922 (discriminator 7)
    25ba:	84 c0                	test   %al,%al
    25bc:	74 0a                	je     25c8 <fclass64+0xa8>
/export/lustre-2/verify/work/hjm/RTPG/RTG/rpg_source/src/fplib/gs_fplib.cpp:923
    25be:	48 83 4d f8 08       	orq    $0x8,-0x8(%rbp)
    25c3:	e9 f3 00 00 00       	jmp    26bb <fclass64+0x19b>
/export/lustre-2/verify/work/hjm/RTPG/RTG/rpg_source/src/fplib/gs_fplib.cpp:924
    25c8:	48 8b 45 e8          	mov    -0x18(%rbp),%rax
    25cc:	be 00 00 00 00       	mov    $0x0,%esi
    25d1:	48 89 c7             	mov    %rax,%rdi
    25d4:	e8 00 00 00 00       	call   25d9 <fclass64+0xb9>
    25d9:	84 c0                	test   %al,%al
    25db:	74 0f                	je     25ec <fclass64+0xcc>
/export/lustre-2/verify/work/hjm/RTPG/RTG/rpg_source/src/fplib/gs_fplib.cpp:924 (discriminator 2)
    25dd:	0f b6 45 f6          	movzbl -0xa(%rbp),%eax
    25e1:	84 c0                	test   %al,%al
    25e3:	74 07                	je     25ec <fclass64+0xcc>
/export/lustre-2/verify/work/hjm/RTPG/RTG/rpg_source/src/fplib/gs_fplib.cpp:924 (discriminator 4)
    25e5:	b8 01 00 00 00       	mov    $0x1,%eax
    25ea:	eb 05                	jmp    25f1 <fclass64+0xd1>
/export/lustre-2/verify/work/hjm/RTPG/RTG/rpg_source/src/fplib/gs_fplib.cpp:924 (discriminator 5)
    25ec:	b8 00 00 00 00       	mov    $0x0,%eax
/export/lustre-2/verify/work/hjm/RTPG/RTG/rpg_source/src/fplib/gs_fplib.cpp:924 (discriminator 7)
    25f1:	84 c0                	test   %al,%al
    25f3:	74 0a                	je     25ff <fclass64+0xdf>
/export/lustre-2/verify/work/hjm/RTPG/RTG/rpg_source/src/fplib/gs_fplib.cpp:925
    25f5:	48 83 4d f8 10       	orq    $0x10,-0x8(%rbp)
    25fa:	e9 bc 00 00 00       	jmp    26bb <fclass64+0x19b>
/export/lustre-2/verify/work/hjm/RTPG/RTG/rpg_source/src/fplib/gs_fplib.cpp:926
    25ff:	48 8b 45 e8          	mov    -0x18(%rbp),%rax
    2603:	48 89 c7             	mov    %rax,%rdi
    2606:	e8 00 00 00 00       	call   260b <fclass64+0xeb>
    260b:	84 c0                	test   %al,%al
    260d:	74 0a                	je     2619 <fclass64+0xf9>
/export/lustre-2/verify/work/hjm/RTPG/RTG/rpg_source/src/fplib/gs_fplib.cpp:927
    260f:	48 83 4d f8 20       	orq    $0x20,-0x8(%rbp)
    2614:	e9 a2 00 00 00       	jmp    26bb <fclass64+0x19b>
/export/lustre-2/verify/work/hjm/RTPG/RTG/rpg_source/src/fplib/gs_fplib.cpp:928
    2619:	80 7d f7 00          	cmpb   $0x0,-0x9(%rbp)
    261d:	74 15                	je     2634 <fclass64+0x114>
/export/lustre-2/verify/work/hjm/RTPG/RTG/rpg_source/src/fplib/gs_fplib.cpp:928 (discriminator 1)
    261f:	0f b6 45 f6          	movzbl -0xa(%rbp),%eax
    2623:	83 f0 01             	xor    $0x1,%eax
    2626:	84 c0                	test   %al,%al
    2628:	74 0a                	je     2634 <fclass64+0x114>
/export/lustre-2/verify/work/hjm/RTPG/RTG/rpg_source/src/fplib/gs_fplib.cpp:929
    262a:	48 83 4d f8 40       	orq    $0x40,-0x8(%rbp)
    262f:	e9 87 00 00 00       	jmp    26bb <fclass64+0x19b>
/export/lustre-2/verify/work/hjm/RTPG/RTG/rpg_source/src/fplib/gs_fplib.cpp:930
    2634:	48 8b 45 e8          	mov    -0x18(%rbp),%rax
    2638:	48 89 c7             	mov    %rax,%rdi
    263b:	e8 00 00 00 00       	call   2640 <fclass64+0x120>
    2640:	84 c0                	test   %al,%al
    2642:	74 12                	je     2656 <fclass64+0x136>
/export/lustre-2/verify/work/hjm/RTPG/RTG/rpg_source/src/fplib/gs_fplib.cpp:930 (discriminator 2)
    2644:	0f b6 45 f6          	movzbl -0xa(%rbp),%eax
    2648:	83 f0 01             	xor    $0x1,%eax
    264b:	84 c0                	test   %al,%al
    264d:	74 07                	je     2656 <fclass64+0x136>
/export/lustre-2/verify/work/hjm/RTPG/RTG/rpg_source/src/fplib/gs_fplib.cpp:930 (discriminator 4)
    264f:	b8 01 00 00 00       	mov    $0x1,%eax
    2654:	eb 05                	jmp    265b <fclass64+0x13b>
/export/lustre-2/verify/work/hjm/RTPG/RTG/rpg_source/src/fplib/gs_fplib.cpp:930 (discriminator 5)
    2656:	b8 00 00 00 00       	mov    $0x0,%eax
/export/lustre-2/verify/work/hjm/RTPG/RTG/rpg_source/src/fplib/gs_fplib.cpp:930 (discriminator 7)
    265b:	84 c0                	test   %al,%al
    265d:	74 0a                	je     2669 <fclass64+0x149>
/export/lustre-2/verify/work/hjm/RTPG/RTG/rpg_source/src/fplib/gs_fplib.cpp:931
    265f:	48 81 4d f8 80 00 00 	orq    $0x80,-0x8(%rbp)
    2666:	00 
    2667:	eb 52                	jmp    26bb <fclass64+0x19b>
/export/lustre-2/verify/work/hjm/RTPG/RTG/rpg_source/src/fplib/gs_fplib.cpp:932
    2669:	48 8b 45 e8          	mov    -0x18(%rbp),%rax
    266d:	be 00 00 00 00       	mov    $0x0,%esi
    2672:	48 89 c7             	mov    %rax,%rdi
    2675:	e8 00 00 00 00       	call   267a <fclass64+0x15a>
    267a:	84 c0                	test   %al,%al
    267c:	74 12                	je     2690 <fclass64+0x170>
/export/lustre-2/verify/work/hjm/RTPG/RTG/rpg_source/src/fplib/gs_fplib.cpp:932 (discriminator 2)
    267e:	0f b6 45 f6          	movzbl -0xa(%rbp),%eax
    2682:	83 f0 01             	xor    $0x1,%eax
    2685:	84 c0                	test   %al,%al
    2687:	74 07                	je     2690 <fclass64+0x170>
/export/lustre-2/verify/work/hjm/RTPG/RTG/rpg_source/src/fplib/gs_fplib.cpp:932 (discriminator 4)
    2689:	b8 01 00 00 00       	mov    $0x1,%eax
    268e:	eb 05                	jmp    2695 <fclass64+0x175>
/export/lustre-2/verify/work/hjm/RTPG/RTG/rpg_source/src/fplib/gs_fplib.cpp:932 (discriminator 5)
    2690:	b8 00 00 00 00       	mov    $0x0,%eax
/export/lustre-2/verify/work/hjm/RTPG/RTG/rpg_source/src/fplib/gs_fplib.cpp:932 (discriminator 7)
    2695:	84 c0                	test   %al,%al
    2697:	74 0a                	je     26a3 <fclass64+0x183>
/export/lustre-2/verify/work/hjm/RTPG/RTG/rpg_source/src/fplib/gs_fplib.cpp:933
    2699:	48 81 4d f8 00 01 00 	orq    $0x100,-0x8(%rbp)
    26a0:	00 
    26a1:	eb 18                	jmp    26bb <fclass64+0x19b>
/export/lustre-2/verify/work/hjm/RTPG/RTG/rpg_source/src/fplib/gs_fplib.cpp:934
    26a3:	48 8b 45 e8          	mov    -0x18(%rbp),%rax
    26a7:	48 89 c7             	mov    %rax,%rdi
    26aa:	e8 00 00 00 00       	call   26af <fclass64+0x18f>
    26af:	84 c0                	test   %al,%al
    26b1:	74 08                	je     26bb <fclass64+0x19b>
/export/lustre-2/verify/work/hjm/RTPG/RTG/rpg_source/src/fplib/gs_fplib.cpp:935
    26b3:	48 81 4d f8 00 02 00 	orq    $0x200,-0x8(%rbp)
    26ba:	00 
/export/lustre-2/verify/work/hjm/RTPG/RTG/rpg_source/src/fplib/gs_fplib.cpp:937
    26bb:	48 8b 45 f8          	mov    -0x8(%rbp),%rax
/export/lustre-2/verify/work/hjm/RTPG/RTG/rpg_source/src/fplib/gs_fplib.cpp:938
    26bf:	c9                   	leave  
    26c0:	c3                   	ret    

00000000000026c1 <fsqrt32>:
fsqrt32():
/export/lustre-2/verify/work/hjm/RTPG/RTG/rpg_source/src/fplib/gs_fplib.cpp:941
    26c1:	55                   	push   %rbp
    26c2:	48 89 e5             	mov    %rsp,%rbp
    26c5:	48 83 ec 30          	sub    $0x30,%rsp
    26c9:	89 7d ec             	mov    %edi,-0x14(%rbp)
    26cc:	89 d0                	mov    %edx,%eax
    26ce:	48 89 4d d8          	mov    %rcx,-0x28(%rbp)
    26d2:	40 88 75 e8          	mov    %sil,-0x18(%rbp)
    26d6:	88 45 e4             	mov    %al,-0x1c(%rbp)
/export/lustre-2/verify/work/hjm/RTPG/RTG/rpg_source/src/fplib/gs_fplib.cpp:943
    26d9:	48 8d 55 fb          	lea    -0x5(%rbp),%rdx
    26dd:	8b 45 ec             	mov    -0x14(%rbp),%eax
    26e0:	48 89 d6             	mov    %rdx,%rsi
    26e3:	89 c7                	mov    %eax,%edi
    26e5:	e8 00 00 00 00       	call   26ea <fsqrt32+0x29>
    26ea:	89 45 fc             	mov    %eax,-0x4(%rbp)
/export/lustre-2/verify/work/hjm/RTPG/RTG/rpg_source/src/fplib/gs_fplib.cpp:947
    26ed:	48 8b 45 d8          	mov    -0x28(%rbp),%rax
    26f1:	c6 00 00             	movb   $0x0,(%rax)
/export/lustre-2/verify/work/hjm/RTPG/RTG/rpg_source/src/fplib/gs_fplib.cpp:948
    26f4:	48 8b 45 d8          	mov    -0x28(%rbp),%rax
    26f8:	0f b6 10             	movzbl (%rax),%edx
    26fb:	0f b6 45 fb          	movzbl -0x5(%rbp),%eax
    26ff:	09 c2                	or     %eax,%edx
    2701:	48 8b 45 d8          	mov    -0x28(%rbp),%rax
    2705:	88 10                	mov    %dl,(%rax)
/export/lustre-2/verify/work/hjm/RTPG/RTG/rpg_source/src/fplib/gs_fplib.cpp:950
    2707:	8b 45 fc             	mov    -0x4(%rbp),%eax
/export/lustre-2/verify/work/hjm/RTPG/RTG/rpg_source/src/fplib/gs_fplib.cpp:951
    270a:	c9                   	leave  
    270b:	c3                   	ret    

000000000000270c <fsqrt64>:
fsqrt64():
/export/lustre-2/verify/work/hjm/RTPG/RTG/rpg_source/src/fplib/gs_fplib.cpp:954
    270c:	55                   	push   %rbp
    270d:	48 89 e5             	mov    %rsp,%rbp
    2710:	48 83 ec 30          	sub    $0x30,%rsp
    2714:	48 89 7d e8          	mov    %rdi,-0x18(%rbp)
    2718:	89 d0                	mov    %edx,%eax
    271a:	48 89 4d d8          	mov    %rcx,-0x28(%rbp)
    271e:	40 88 75 e4          	mov    %sil,-0x1c(%rbp)
    2722:	88 45 e0             	mov    %al,-0x20(%rbp)
/export/lustre-2/verify/work/hjm/RTPG/RTG/rpg_source/src/fplib/gs_fplib.cpp:956
    2725:	48 8d 55 f7          	lea    -0x9(%rbp),%rdx
    2729:	48 8b 45 e8          	mov    -0x18(%rbp),%rax
    272d:	48 89 d6             	mov    %rdx,%rsi
    2730:	48 89 c7             	mov    %rax,%rdi
    2733:	e8 00 00 00 00       	call   2738 <fsqrt64+0x2c>
    2738:	48 89 45 f8          	mov    %rax,-0x8(%rbp)
/export/lustre-2/verify/work/hjm/RTPG/RTG/rpg_source/src/fplib/gs_fplib.cpp:960
    273c:	48 8b 45 d8          	mov    -0x28(%rbp),%rax
    2740:	c6 00 00             	movb   $0x0,(%rax)
/export/lustre-2/verify/work/hjm/RTPG/RTG/rpg_source/src/fplib/gs_fplib.cpp:961
    2743:	48 8b 45 d8          	mov    -0x28(%rbp),%rax
    2747:	0f b6 10             	movzbl (%rax),%edx
    274a:	0f b6 45 f7          	movzbl -0x9(%rbp),%eax
    274e:	09 c2                	or     %eax,%edx
    2750:	48 8b 45 d8          	mov    -0x28(%rbp),%rax
    2754:	88 10                	mov    %dl,(%rax)
/export/lustre-2/verify/work/hjm/RTPG/RTG/rpg_source/src/fplib/gs_fplib.cpp:963
    2756:	48 8b 45 f8          	mov    -0x8(%rbp),%rax
/export/lustre-2/verify/work/hjm/RTPG/RTG/rpg_source/src/fplib/gs_fplib.cpp:964
    275a:	c9                   	leave  
    275b:	c3                   	ret    

000000000000275c <frecip32>:
frecip32():
/export/lustre-2/verify/work/hjm/RTPG/RTG/rpg_source/src/fplib/gs_fplib.cpp:967
    275c:	55                   	push   %rbp
    275d:	48 89 e5             	mov    %rsp,%rbp
    2760:	48 83 ec 30          	sub    $0x30,%rsp
    2764:	89 7d ec             	mov    %edi,-0x14(%rbp)
    2767:	89 d0                	mov    %edx,%eax
    2769:	48 89 4d d8          	mov    %rcx,-0x28(%rbp)
    276d:	40 88 75 e8          	mov    %sil,-0x18(%rbp)
    2771:	88 45 e4             	mov    %al,-0x1c(%rbp)
/export/lustre-2/verify/work/hjm/RTPG/RTG/rpg_source/src/fplib/gs_fplib.cpp:969
    2774:	48 8d 55 fb          	lea    -0x5(%rbp),%rdx
    2778:	8b 45 ec             	mov    -0x14(%rbp),%eax
    277b:	48 89 d6             	mov    %rdx,%rsi
    277e:	89 c7                	mov    %eax,%edi
    2780:	e8 00 00 00 00       	call   2785 <frecip32+0x29>
    2785:	89 45 fc             	mov    %eax,-0x4(%rbp)
/export/lustre-2/verify/work/hjm/RTPG/RTG/rpg_source/src/fplib/gs_fplib.cpp:973
    2788:	48 8b 45 d8          	mov    -0x28(%rbp),%rax
    278c:	c6 00 00             	movb   $0x0,(%rax)
/export/lustre-2/verify/work/hjm/RTPG/RTG/rpg_source/src/fplib/gs_fplib.cpp:974
    278f:	48 8b 45 d8          	mov    -0x28(%rbp),%rax
    2793:	0f b6 10             	movzbl (%rax),%edx
    2796:	0f b6 45 fb          	movzbl -0x5(%rbp),%eax
    279a:	09 c2                	or     %eax,%edx
    279c:	48 8b 45 d8          	mov    -0x28(%rbp),%rax
    27a0:	88 10                	mov    %dl,(%rax)
/export/lustre-2/verify/work/hjm/RTPG/RTG/rpg_source/src/fplib/gs_fplib.cpp:976
    27a2:	8b 45 fc             	mov    -0x4(%rbp),%eax
/export/lustre-2/verify/work/hjm/RTPG/RTG/rpg_source/src/fplib/gs_fplib.cpp:977
    27a5:	c9                   	leave  
    27a6:	c3                   	ret    

00000000000027a7 <frecipe_s>:
frecipe_s():
/export/lustre-2/verify/work/hjm/RTPG/RTG/rpg_source/src/fplib/gs_fplib.cpp:980
    27a7:	55                   	push   %rbp
    27a8:	48 89 e5             	mov    %rsp,%rbp
    27ab:	48 83 ec 30          	sub    $0x30,%rsp
    27af:	89 7d ec             	mov    %edi,-0x14(%rbp)
    27b2:	89 d0                	mov    %edx,%eax
    27b4:	48 89 4d d8          	mov    %rcx,-0x28(%rbp)
    27b8:	44 89 c2             	mov    %r8d,%edx
    27bb:	40 88 75 e8          	mov    %sil,-0x18(%rbp)
    27bf:	88 45 e4             	mov    %al,-0x1c(%rbp)
    27c2:	88 55 e0             	mov    %dl,-0x20(%rbp)
/export/lustre-2/verify/work/hjm/RTPG/RTG/rpg_source/src/fplib/gs_fplib.cpp:982
    27c5:	0f b6 55 e0          	movzbl -0x20(%rbp),%edx
    27c9:	48 8d 4d fb          	lea    -0x5(%rbp),%rcx
    27cd:	8b 45 ec             	mov    -0x14(%rbp),%eax
    27d0:	48 89 ce             	mov    %rcx,%rsi
    27d3:	89 c7                	mov    %eax,%edi
    27d5:	e8 00 00 00 00       	call   27da <frecipe_s+0x33>
    27da:	89 45 fc             	mov    %eax,-0x4(%rbp)
/export/lustre-2/verify/work/hjm/RTPG/RTG/rpg_source/src/fplib/gs_fplib.cpp:986
    27dd:	48 8b 45 d8          	mov    -0x28(%rbp),%rax
    27e1:	c6 00 00             	movb   $0x0,(%rax)
/export/lustre-2/verify/work/hjm/RTPG/RTG/rpg_source/src/fplib/gs_fplib.cpp:987
    27e4:	48 8b 45 d8          	mov    -0x28(%rbp),%rax
    27e8:	0f b6 10             	movzbl (%rax),%edx
    27eb:	0f b6 45 fb          	movzbl -0x5(%rbp),%eax
    27ef:	09 c2                	or     %eax,%edx
    27f1:	48 8b 45 d8          	mov    -0x28(%rbp),%rax
    27f5:	88 10                	mov    %dl,(%rax)
/export/lustre-2/verify/work/hjm/RTPG/RTG/rpg_source/src/fplib/gs_fplib.cpp:989
    27f7:	8b 45 fc             	mov    -0x4(%rbp),%eax
/export/lustre-2/verify/work/hjm/RTPG/RTG/rpg_source/src/fplib/gs_fplib.cpp:990
    27fa:	c9                   	leave  
    27fb:	c3                   	ret    

00000000000027fc <frecip64>:
frecip64():
/export/lustre-2/verify/work/hjm/RTPG/RTG/rpg_source/src/fplib/gs_fplib.cpp:993
    27fc:	55                   	push   %rbp
    27fd:	48 89 e5             	mov    %rsp,%rbp
    2800:	48 83 ec 30          	sub    $0x30,%rsp
    2804:	48 89 7d e8          	mov    %rdi,-0x18(%rbp)
    2808:	89 d0                	mov    %edx,%eax
    280a:	48 89 4d d8          	mov    %rcx,-0x28(%rbp)
    280e:	40 88 75 e4          	mov    %sil,-0x1c(%rbp)
    2812:	88 45 e0             	mov    %al,-0x20(%rbp)
/export/lustre-2/verify/work/hjm/RTPG/RTG/rpg_source/src/fplib/gs_fplib.cpp:995
    2815:	48 8d 55 f7          	lea    -0x9(%rbp),%rdx
    2819:	48 8b 45 e8          	mov    -0x18(%rbp),%rax
    281d:	48 89 d6             	mov    %rdx,%rsi
    2820:	48 89 c7             	mov    %rax,%rdi
    2823:	e8 00 00 00 00       	call   2828 <frecip64+0x2c>
    2828:	48 89 45 f8          	mov    %rax,-0x8(%rbp)
/export/lustre-2/verify/work/hjm/RTPG/RTG/rpg_source/src/fplib/gs_fplib.cpp:999
    282c:	48 8b 45 d8          	mov    -0x28(%rbp),%rax
    2830:	c6 00 00             	movb   $0x0,(%rax)
/export/lustre-2/verify/work/hjm/RTPG/RTG/rpg_source/src/fplib/gs_fplib.cpp:1000
    2833:	48 8b 45 d8          	mov    -0x28(%rbp),%rax
    2837:	0f b6 10             	movzbl (%rax),%edx
    283a:	0f b6 45 f7          	movzbl -0x9(%rbp),%eax
    283e:	09 c2                	or     %eax,%edx
    2840:	48 8b 45 d8          	mov    -0x28(%rbp),%rax
    2844:	88 10                	mov    %dl,(%rax)
/export/lustre-2/verify/work/hjm/RTPG/RTG/rpg_source/src/fplib/gs_fplib.cpp:1002
    2846:	48 8b 45 f8          	mov    -0x8(%rbp),%rax
/export/lustre-2/verify/work/hjm/RTPG/RTG/rpg_source/src/fplib/gs_fplib.cpp:1003
    284a:	c9                   	leave  
    284b:	c3                   	ret    

000000000000284c <frecipe_d>:
frecipe_d():
/export/lustre-2/verify/work/hjm/RTPG/RTG/rpg_source/src/fplib/gs_fplib.cpp:1006
    284c:	55                   	push   %rbp
    284d:	48 89 e5             	mov    %rsp,%rbp
    2850:	48 83 ec 30          	sub    $0x30,%rsp
    2854:	48 89 7d e8          	mov    %rdi,-0x18(%rbp)
    2858:	89 d0                	mov    %edx,%eax
    285a:	48 89 4d d8          	mov    %rcx,-0x28(%rbp)
    285e:	44 89 c2             	mov    %r8d,%edx
    2861:	40 88 75 e4          	mov    %sil,-0x1c(%rbp)
    2865:	88 45 e0             	mov    %al,-0x20(%rbp)
    2868:	88 55 d4             	mov    %dl,-0x2c(%rbp)
/export/lustre-2/verify/work/hjm/RTPG/RTG/rpg_source/src/fplib/gs_fplib.cpp:1008
    286b:	0f b6 55 d4          	movzbl -0x2c(%rbp),%edx
    286f:	48 8d 4d f7          	lea    -0x9(%rbp),%rcx
    2873:	48 8b 45 e8          	mov    -0x18(%rbp),%rax
    2877:	48 89 ce             	mov    %rcx,%rsi
    287a:	48 89 c7             	mov    %rax,%rdi
    287d:	e8 00 00 00 00       	call   2882 <frecipe_d+0x36>
    2882:	48 89 45 f8          	mov    %rax,-0x8(%rbp)
/export/lustre-2/verify/work/hjm/RTPG/RTG/rpg_source/src/fplib/gs_fplib.cpp:1012
    2886:	48 8b 45 d8          	mov    -0x28(%rbp),%rax
    288a:	c6 00 00             	movb   $0x0,(%rax)
/export/lustre-2/verify/work/hjm/RTPG/RTG/rpg_source/src/fplib/gs_fplib.cpp:1013
    288d:	48 8b 45 d8          	mov    -0x28(%rbp),%rax
    2891:	0f b6 10             	movzbl (%rax),%edx
    2894:	0f b6 45 f7          	movzbl -0x9(%rbp),%eax
    2898:	09 c2                	or     %eax,%edx
    289a:	48 8b 45 d8          	mov    -0x28(%rbp),%rax
    289e:	88 10                	mov    %dl,(%rax)
/export/lustre-2/verify/work/hjm/RTPG/RTG/rpg_source/src/fplib/gs_fplib.cpp:1015
    28a0:	48 8b 45 f8          	mov    -0x8(%rbp),%rax
/export/lustre-2/verify/work/hjm/RTPG/RTG/rpg_source/src/fplib/gs_fplib.cpp:1016
    28a4:	c9                   	leave  
    28a5:	c3                   	ret    

00000000000028a6 <frsqrt32>:
frsqrt32():
/export/lustre-2/verify/work/hjm/RTPG/RTG/rpg_source/src/fplib/gs_fplib.cpp:1019
    28a6:	55                   	push   %rbp
    28a7:	48 89 e5             	mov    %rsp,%rbp
    28aa:	48 83 ec 30          	sub    $0x30,%rsp
    28ae:	89 7d ec             	mov    %edi,-0x14(%rbp)
    28b1:	89 d0                	mov    %edx,%eax
    28b3:	48 89 4d d8          	mov    %rcx,-0x28(%rbp)
    28b7:	40 88 75 e8          	mov    %sil,-0x18(%rbp)
    28bb:	88 45 e4             	mov    %al,-0x1c(%rbp)
/export/lustre-2/verify/work/hjm/RTPG/RTG/rpg_source/src/fplib/gs_fplib.cpp:1021
    28be:	48 8d 55 fb          	lea    -0x5(%rbp),%rdx
    28c2:	8b 45 ec             	mov    -0x14(%rbp),%eax
    28c5:	48 89 d6             	mov    %rdx,%rsi
    28c8:	89 c7                	mov    %eax,%edi
    28ca:	e8 00 00 00 00       	call   28cf <frsqrt32+0x29>
    28cf:	89 45 fc             	mov    %eax,-0x4(%rbp)
/export/lustre-2/verify/work/hjm/RTPG/RTG/rpg_source/src/fplib/gs_fplib.cpp:1025
    28d2:	48 8b 45 d8          	mov    -0x28(%rbp),%rax
    28d6:	c6 00 00             	movb   $0x0,(%rax)
/export/lustre-2/verify/work/hjm/RTPG/RTG/rpg_source/src/fplib/gs_fplib.cpp:1026
    28d9:	48 8b 45 d8          	mov    -0x28(%rbp),%rax
    28dd:	0f b6 10             	movzbl (%rax),%edx
    28e0:	0f b6 45 fb          	movzbl -0x5(%rbp),%eax
    28e4:	09 c2                	or     %eax,%edx
    28e6:	48 8b 45 d8          	mov    -0x28(%rbp),%rax
    28ea:	88 10                	mov    %dl,(%rax)
/export/lustre-2/verify/work/hjm/RTPG/RTG/rpg_source/src/fplib/gs_fplib.cpp:1028
    28ec:	8b 45 fc             	mov    -0x4(%rbp),%eax
/export/lustre-2/verify/work/hjm/RTPG/RTG/rpg_source/src/fplib/gs_fplib.cpp:1029
    28ef:	c9                   	leave  
    28f0:	c3                   	ret    

00000000000028f1 <frsqrte_s>:
frsqrte_s():
/export/lustre-2/verify/work/hjm/RTPG/RTG/rpg_source/src/fplib/gs_fplib.cpp:1032
    28f1:	55                   	push   %rbp
    28f2:	48 89 e5             	mov    %rsp,%rbp
    28f5:	48 83 ec 30          	sub    $0x30,%rsp
    28f9:	89 7d ec             	mov    %edi,-0x14(%rbp)
    28fc:	89 d0                	mov    %edx,%eax
    28fe:	48 89 4d d8          	mov    %rcx,-0x28(%rbp)
    2902:	40 88 75 e8          	mov    %sil,-0x18(%rbp)
    2906:	88 45 e4             	mov    %al,-0x1c(%rbp)
/export/lustre-2/verify/work/hjm/RTPG/RTG/rpg_source/src/fplib/gs_fplib.cpp:1034
    2909:	48 8d 55 fb          	lea    -0x5(%rbp),%rdx
    290d:	8b 45 ec             	mov    -0x14(%rbp),%eax
    2910:	48 89 d6             	mov    %rdx,%rsi
    2913:	89 c7                	mov    %eax,%edi
    2915:	e8 00 00 00 00       	call   291a <frsqrte_s+0x29>
    291a:	89 45 fc             	mov    %eax,-0x4(%rbp)
/export/lustre-2/verify/work/hjm/RTPG/RTG/rpg_source/src/fplib/gs_fplib.cpp:1038
    291d:	48 8b 45 d8          	mov    -0x28(%rbp),%rax
    2921:	c6 00 00             	movb   $0x0,(%rax)
/export/lustre-2/verify/work/hjm/RTPG/RTG/rpg_source/src/fplib/gs_fplib.cpp:1039
    2924:	48 8b 45 d8          	mov    -0x28(%rbp),%rax
    2928:	0f b6 10             	movzbl (%rax),%edx
    292b:	0f b6 45 fb          	movzbl -0x5(%rbp),%eax
    292f:	09 c2                	or     %eax,%edx
    2931:	48 8b 45 d8          	mov    -0x28(%rbp),%rax
    2935:	88 10                	mov    %dl,(%rax)
/export/lustre-2/verify/work/hjm/RTPG/RTG/rpg_source/src/fplib/gs_fplib.cpp:1041
    2937:	8b 45 fc             	mov    -0x4(%rbp),%eax
/export/lustre-2/verify/work/hjm/RTPG/RTG/rpg_source/src/fplib/gs_fplib.cpp:1042
    293a:	c9                   	leave  
    293b:	c3                   	ret    

000000000000293c <frsqrt64>:
frsqrt64():
/export/lustre-2/verify/work/hjm/RTPG/RTG/rpg_source/src/fplib/gs_fplib.cpp:1045
    293c:	55                   	push   %rbp
    293d:	48 89 e5             	mov    %rsp,%rbp
    2940:	48 83 ec 30          	sub    $0x30,%rsp
    2944:	48 89 7d e8          	mov    %rdi,-0x18(%rbp)
    2948:	89 d0                	mov    %edx,%eax
    294a:	48 89 4d d8          	mov    %rcx,-0x28(%rbp)
    294e:	40 88 75 e4          	mov    %sil,-0x1c(%rbp)
    2952:	88 45 e0             	mov    %al,-0x20(%rbp)
/export/lustre-2/verify/work/hjm/RTPG/RTG/rpg_source/src/fplib/gs_fplib.cpp:1047
    2955:	48 8d 55 f7          	lea    -0x9(%rbp),%rdx
    2959:	48 8b 45 e8          	mov    -0x18(%rbp),%rax
    295d:	48 89 d6             	mov    %rdx,%rsi
    2960:	48 89 c7             	mov    %rax,%rdi
    2963:	e8 00 00 00 00       	call   2968 <frsqrt64+0x2c>
    2968:	48 89 45 f8          	mov    %rax,-0x8(%rbp)
/export/lustre-2/verify/work/hjm/RTPG/RTG/rpg_source/src/fplib/gs_fplib.cpp:1051
    296c:	48 8b 45 d8          	mov    -0x28(%rbp),%rax
    2970:	c6 00 00             	movb   $0x0,(%rax)
/export/lustre-2/verify/work/hjm/RTPG/RTG/rpg_source/src/fplib/gs_fplib.cpp:1052
    2973:	48 8b 45 d8          	mov    -0x28(%rbp),%rax
    2977:	0f b6 10             	movzbl (%rax),%edx
    297a:	0f b6 45 f7          	movzbl -0x9(%rbp),%eax
    297e:	09 c2                	or     %eax,%edx
    2980:	48 8b 45 d8          	mov    -0x28(%rbp),%rax
    2984:	88 10                	mov    %dl,(%rax)
/export/lustre-2/verify/work/hjm/RTPG/RTG/rpg_source/src/fplib/gs_fplib.cpp:1054
    2986:	48 8b 45 f8          	mov    -0x8(%rbp),%rax
/export/lustre-2/verify/work/hjm/RTPG/RTG/rpg_source/src/fplib/gs_fplib.cpp:1055
    298a:	c9                   	leave  
    298b:	c3                   	ret    

000000000000298c <frsqrte_d>:
frsqrte_d():
/export/lustre-2/verify/work/hjm/RTPG/RTG/rpg_source/src/fplib/gs_fplib.cpp:1058
    298c:	55                   	push   %rbp
    298d:	48 89 e5             	mov    %rsp,%rbp
    2990:	48 83 ec 30          	sub    $0x30,%rsp
    2994:	48 89 7d e8          	mov    %rdi,-0x18(%rbp)
    2998:	89 d0                	mov    %edx,%eax
    299a:	48 89 4d d8          	mov    %rcx,-0x28(%rbp)
    299e:	40 88 75 e4          	mov    %sil,-0x1c(%rbp)
    29a2:	88 45 e0             	mov    %al,-0x20(%rbp)
/export/lustre-2/verify/work/hjm/RTPG/RTG/rpg_source/src/fplib/gs_fplib.cpp:1060
    29a5:	48 8d 55 f7          	lea    -0x9(%rbp),%rdx
    29a9:	48 8b 45 e8          	mov    -0x18(%rbp),%rax
    29ad:	48 89 d6             	mov    %rdx,%rsi
    29b0:	48 89 c7             	mov    %rax,%rdi
    29b3:	e8 00 00 00 00       	call   29b8 <frsqrte_d+0x2c>
    29b8:	48 89 45 f8          	mov    %rax,-0x8(%rbp)
/export/lustre-2/verify/work/hjm/RTPG/RTG/rpg_source/src/fplib/gs_fplib.cpp:1064
    29bc:	48 8b 45 d8          	mov    -0x28(%rbp),%rax
    29c0:	c6 00 00             	movb   $0x0,(%rax)
/export/lustre-2/verify/work/hjm/RTPG/RTG/rpg_source/src/fplib/gs_fplib.cpp:1065
    29c3:	48 8b 45 d8          	mov    -0x28(%rbp),%rax
    29c7:	0f b6 10             	movzbl (%rax),%edx
    29ca:	0f b6 45 f7          	movzbl -0x9(%rbp),%eax
    29ce:	09 c2                	or     %eax,%edx
    29d0:	48 8b 45 d8          	mov    -0x28(%rbp),%rax
    29d4:	88 10                	mov    %dl,(%rax)
/export/lustre-2/verify/work/hjm/RTPG/RTG/rpg_source/src/fplib/gs_fplib.cpp:1067
    29d6:	48 8b 45 f8          	mov    -0x8(%rbp),%rax
/export/lustre-2/verify/work/hjm/RTPG/RTG/rpg_source/src/fplib/gs_fplib.cpp:1068
    29da:	c9                   	leave  
    29db:	c3                   	ret    

00000000000029dc <movfcsr2gr>:
movfcsr2gr():
/export/lustre-2/verify/work/hjm/RTPG/RTG/rpg_source/src/fplib/gs_fplib.cpp:1071
    29dc:	55                   	push   %rbp
    29dd:	48 89 e5             	mov    %rsp,%rbp
    29e0:	48 89 7d e8          	mov    %rdi,-0x18(%rbp)
    29e4:	89 75 e4             	mov    %esi,-0x1c(%rbp)
/export/lustre-2/verify/work/hjm/RTPG/RTG/rpg_source/src/fplib/gs_fplib.cpp:1074
    29e7:	83 7d e4 00          	cmpl   $0x0,-0x1c(%rbp)
    29eb:	75 0a                	jne    29f7 <movfcsr2gr+0x1b>
/export/lustre-2/verify/work/hjm/RTPG/RTG/rpg_source/src/fplib/gs_fplib.cpp:1075
    29ed:	48 8b 45 e8          	mov    -0x18(%rbp),%rax
    29f1:	48 89 45 f8          	mov    %rax,-0x8(%rbp)
    29f5:	eb 3d                	jmp    2a34 <movfcsr2gr+0x58>
/export/lustre-2/verify/work/hjm/RTPG/RTG/rpg_source/src/fplib/gs_fplib.cpp:1077
    29f7:	83 7d e4 01          	cmpl   $0x1,-0x1c(%rbp)
    29fb:	75 0f                	jne    2a0c <movfcsr2gr+0x30>
/export/lustre-2/verify/work/hjm/RTPG/RTG/rpg_source/src/fplib/gs_fplib.cpp:1078
    29fd:	48 8b 45 e8          	mov    -0x18(%rbp),%rax
    2a01:	25 9f 00 00 00       	and    $0x9f,%eax
    2a06:	48 89 45 f8          	mov    %rax,-0x8(%rbp)
    2a0a:	eb 28                	jmp    2a34 <movfcsr2gr+0x58>
/export/lustre-2/verify/work/hjm/RTPG/RTG/rpg_source/src/fplib/gs_fplib.cpp:1080
    2a0c:	83 7d e4 02          	cmpl   $0x2,-0x1c(%rbp)
    2a10:	75 0f                	jne    2a21 <movfcsr2gr+0x45>
/export/lustre-2/verify/work/hjm/RTPG/RTG/rpg_source/src/fplib/gs_fplib.cpp:1081
    2a12:	48 8b 45 e8          	mov    -0x18(%rbp),%rax
    2a16:	25 00 00 1f 1f       	and    $0x1f1f0000,%eax
    2a1b:	48 89 45 f8          	mov    %rax,-0x8(%rbp)
    2a1f:	eb 13                	jmp    2a34 <movfcsr2gr+0x58>
/export/lustre-2/verify/work/hjm/RTPG/RTG/rpg_source/src/fplib/gs_fplib.cpp:1083
    2a21:	83 7d e4 03          	cmpl   $0x3,-0x1c(%rbp)
    2a25:	75 0d                	jne    2a34 <movfcsr2gr+0x58>
/export/lustre-2/verify/work/hjm/RTPG/RTG/rpg_source/src/fplib/gs_fplib.cpp:1084
    2a27:	48 8b 45 e8          	mov    -0x18(%rbp),%rax
    2a2b:	25 00 03 00 00       	and    $0x300,%eax
    2a30:	48 89 45 f8          	mov    %rax,-0x8(%rbp)
/export/lustre-2/verify/work/hjm/RTPG/RTG/rpg_source/src/fplib/gs_fplib.cpp:1086
    2a34:	48 8b 45 f8          	mov    -0x8(%rbp),%rax
    2a38:	25 00 00 00 80       	and    $0x80000000,%eax
    2a3d:	48 85 c0             	test   %rax,%rax
    2a40:	75 0a                	jne    2a4c <movfcsr2gr+0x70>
/export/lustre-2/verify/work/hjm/RTPG/RTG/rpg_source/src/fplib/gs_fplib.cpp:1087
    2a42:	48 8b 45 f8          	mov    -0x8(%rbp),%rax
    2a46:	48 89 45 f0          	mov    %rax,-0x10(%rbp)
    2a4a:	eb 12                	jmp    2a5e <movfcsr2gr+0x82>
/export/lustre-2/verify/work/hjm/RTPG/RTG/rpg_source/src/fplib/gs_fplib.cpp:1090
    2a4c:	48 b8 00 00 00 00 ff 	movabs $0xffffffff00000000,%rax
    2a53:	ff ff ff 
    2a56:	48 0b 45 f8          	or     -0x8(%rbp),%rax
    2a5a:	48 89 45 f0          	mov    %rax,-0x10(%rbp)
/export/lustre-2/verify/work/hjm/RTPG/RTG/rpg_source/src/fplib/gs_fplib.cpp:1092
    2a5e:	48 8b 45 f0          	mov    -0x10(%rbp),%rax
/export/lustre-2/verify/work/hjm/RTPG/RTG/rpg_source/src/fplib/gs_fplib.cpp:1094
    2a62:	5d                   	pop    %rbp
    2a63:	c3                   	ret    

0000000000002a64 <movgr2fcsr>:
movgr2fcsr():
/export/lustre-2/verify/work/hjm/RTPG/RTG/rpg_source/src/fplib/gs_fplib.cpp:1097
    2a64:	55                   	push   %rbp
    2a65:	48 89 e5             	mov    %rsp,%rbp
    2a68:	48 89 7d c8          	mov    %rdi,-0x38(%rbp)
    2a6c:	48 89 75 c0          	mov    %rsi,-0x40(%rbp)
    2a70:	89 55 bc             	mov    %edx,-0x44(%rbp)
/export/lustre-2/verify/work/hjm/RTPG/RTG/rpg_source/src/fplib/gs_fplib.cpp:1101
    2a73:	83 7d bc 00          	cmpl   $0x0,-0x44(%rbp)
    2a77:	75 39                	jne    2ab2 <movgr2fcsr+0x4e>
/export/lustre-2/verify/work/hjm/RTPG/RTG/rpg_source/src/fplib/gs_fplib.cpp:1102
    2a79:	48 c7 45 f0 df 03 1f 	movq   $0x1f1f03df,-0x10(%rbp)
    2a80:	1f 
/export/lustre-2/verify/work/hjm/RTPG/RTG/rpg_source/src/fplib/gs_fplib.cpp:1103
    2a81:	48 8b 45 c8          	mov    -0x38(%rbp),%rax
    2a85:	48 23 45 f0          	and    -0x10(%rbp),%rax
    2a89:	48 89 45 e8          	mov    %rax,-0x18(%rbp)
/export/lustre-2/verify/work/hjm/RTPG/RTG/rpg_source/src/fplib/gs_fplib.cpp:1104
    2a8d:	48 c7 45 e0 20 fc e0 	movq   $0xffffffffe0e0fc20,-0x20(%rbp)
    2a94:	e0 
/export/lustre-2/verify/work/hjm/RTPG/RTG/rpg_source/src/fplib/gs_fplib.cpp:1105
    2a95:	48 8b 45 c0          	mov    -0x40(%rbp),%rax
    2a99:	48 23 45 e0          	and    -0x20(%rbp),%rax
    2a9d:	48 89 45 d8          	mov    %rax,-0x28(%rbp)
/export/lustre-2/verify/work/hjm/RTPG/RTG/rpg_source/src/fplib/gs_fplib.cpp:1106
    2aa1:	48 8b 45 e8          	mov    -0x18(%rbp),%rax
    2aa5:	48 0b 45 d8          	or     -0x28(%rbp),%rax
    2aa9:	48 89 45 f8          	mov    %rax,-0x8(%rbp)
    2aad:	e9 b2 00 00 00       	jmp    2b64 <movgr2fcsr+0x100>
/export/lustre-2/verify/work/hjm/RTPG/RTG/rpg_source/src/fplib/gs_fplib.cpp:1109
    2ab2:	83 7d bc 01          	cmpl   $0x1,-0x44(%rbp)
    2ab6:	75 36                	jne    2aee <movgr2fcsr+0x8a>
/export/lustre-2/verify/work/hjm/RTPG/RTG/rpg_source/src/fplib/gs_fplib.cpp:1110
    2ab8:	48 c7 45 f0 9f 00 00 	movq   $0x9f,-0x10(%rbp)
    2abf:	00 
/export/lustre-2/verify/work/hjm/RTPG/RTG/rpg_source/src/fplib/gs_fplib.cpp:1111
    2ac0:	48 8b 45 c8          	mov    -0x38(%rbp),%rax
    2ac4:	48 23 45 f0          	and    -0x10(%rbp),%rax
    2ac8:	48 89 45 e8          	mov    %rax,-0x18(%rbp)
/export/lustre-2/verify/work/hjm/RTPG/RTG/rpg_source/src/fplib/gs_fplib.cpp:1112
    2acc:	48 c7 45 e0 60 ff ff 	movq   $0xffffffffffffff60,-0x20(%rbp)
    2ad3:	ff 
/export/lustre-2/verify/work/hjm/RTPG/RTG/rpg_source/src/fplib/gs_fplib.cpp:1113
    2ad4:	48 8b 45 c0          	mov    -0x40(%rbp),%rax
    2ad8:	48 23 45 e0          	and    -0x20(%rbp),%rax
    2adc:	48 89 45 d8          	mov    %rax,-0x28(%rbp)
/export/lustre-2/verify/work/hjm/RTPG/RTG/rpg_source/src/fplib/gs_fplib.cpp:1114
    2ae0:	48 8b 45 e8          	mov    -0x18(%rbp),%rax
    2ae4:	48 0b 45 d8          	or     -0x28(%rbp),%rax
    2ae8:	48 89 45 f8          	mov    %rax,-0x8(%rbp)
    2aec:	eb 76                	jmp    2b64 <movgr2fcsr+0x100>
/export/lustre-2/verify/work/hjm/RTPG/RTG/rpg_source/src/fplib/gs_fplib.cpp:1116
    2aee:	83 7d bc 02          	cmpl   $0x2,-0x44(%rbp)
    2af2:	75 36                	jne    2b2a <movgr2fcsr+0xc6>
/export/lustre-2/verify/work/hjm/RTPG/RTG/rpg_source/src/fplib/gs_fplib.cpp:1117
    2af4:	48 c7 45 f0 00 00 1f 	movq   $0x1f1f0000,-0x10(%rbp)
    2afb:	1f 
/export/lustre-2/verify/work/hjm/RTPG/RTG/rpg_source/src/fplib/gs_fplib.cpp:1118
    2afc:	48 8b 45 c8          	mov    -0x38(%rbp),%rax
    2b00:	48 23 45 f0          	and    -0x10(%rbp),%rax
    2b04:	48 89 45 e8          	mov    %rax,-0x18(%rbp)
/export/lustre-2/verify/work/hjm/RTPG/RTG/rpg_source/src/fplib/gs_fplib.cpp:1119
    2b08:	48 c7 45 e0 ff ff e0 	movq   $0xffffffffe0e0ffff,-0x20(%rbp)
    2b0f:	e0 
/export/lustre-2/verify/work/hjm/RTPG/RTG/rpg_source/src/fplib/gs_fplib.cpp:1120
    2b10:	48 8b 45 c0          	mov    -0x40(%rbp),%rax
    2b14:	48 23 45 e0          	and    -0x20(%rbp),%rax
    2b18:	48 89 45 d8          	mov    %rax,-0x28(%rbp)
/export/lustre-2/verify/work/hjm/RTPG/RTG/rpg_source/src/fplib/gs_fplib.cpp:1121
    2b1c:	48 8b 45 e8          	mov    -0x18(%rbp),%rax
    2b20:	48 0b 45 d8          	or     -0x28(%rbp),%rax
    2b24:	48 89 45 f8          	mov    %rax,-0x8(%rbp)
    2b28:	eb 3a                	jmp    2b64 <movgr2fcsr+0x100>
/export/lustre-2/verify/work/hjm/RTPG/RTG/rpg_source/src/fplib/gs_fplib.cpp:1123
    2b2a:	83 7d bc 03          	cmpl   $0x3,-0x44(%rbp)
    2b2e:	75 34                	jne    2b64 <movgr2fcsr+0x100>
/export/lustre-2/verify/work/hjm/RTPG/RTG/rpg_source/src/fplib/gs_fplib.cpp:1124
    2b30:	48 c7 45 f0 00 03 00 	movq   $0x300,-0x10(%rbp)
    2b37:	00 
/export/lustre-2/verify/work/hjm/RTPG/RTG/rpg_source/src/fplib/gs_fplib.cpp:1125
    2b38:	48 8b 45 c8          	mov    -0x38(%rbp),%rax
    2b3c:	48 23 45 f0          	and    -0x10(%rbp),%rax
    2b40:	48 89 45 e8          	mov    %rax,-0x18(%rbp)
/export/lustre-2/verify/work/hjm/RTPG/RTG/rpg_source/src/fplib/gs_fplib.cpp:1126
    2b44:	48 c7 45 e0 ff fc ff 	movq   $0xfffffffffffffcff,-0x20(%rbp)
    2b4b:	ff 
/export/lustre-2/verify/work/hjm/RTPG/RTG/rpg_source/src/fplib/gs_fplib.cpp:1127
    2b4c:	48 8b 45 c0          	mov    -0x40(%rbp),%rax
    2b50:	48 23 45 e0          	and    -0x20(%rbp),%rax
    2b54:	48 89 45 d8          	mov    %rax,-0x28(%rbp)
/export/lustre-2/verify/work/hjm/RTPG/RTG/rpg_source/src/fplib/gs_fplib.cpp:1128
    2b58:	48 8b 45 e8          	mov    -0x18(%rbp),%rax
    2b5c:	48 0b 45 d8          	or     -0x28(%rbp),%rax
    2b60:	48 89 45 f8          	mov    %rax,-0x8(%rbp)
/export/lustre-2/verify/work/hjm/RTPG/RTG/rpg_source/src/fplib/gs_fplib.cpp:1130
    2b64:	48 8b 45 f8          	mov    -0x8(%rbp),%rax
/export/lustre-2/verify/work/hjm/RTPG/RTG/rpg_source/src/fplib/gs_fplib.cpp:1132
    2b68:	5d                   	pop    %rbp
    2b69:	c3                   	ret    

0000000000002b6a <fcvt_fp64_to_int64>:
fcvt_fp64_to_int64():
/export/lustre-2/verify/work/hjm/RTPG/RTG/rpg_source/src/fplib/gs_fplib.cpp:1135
    2b6a:	55                   	push   %rbp
    2b6b:	48 89 e5             	mov    %rsp,%rbp
    2b6e:	48 83 ec 10          	sub    $0x10,%rsp
    2b72:	48 89 7d f8          	mov    %rdi,-0x8(%rbp)
    2b76:	48 89 75 f0          	mov    %rsi,-0x10(%rbp)
/export/lustre-2/verify/work/hjm/RTPG/RTG/rpg_source/src/fplib/gs_fplib.cpp:1136
    2b7a:	48 8b 55 f0          	mov    -0x10(%rbp),%rdx
    2b7e:	48 8b 45 f8          	mov    -0x8(%rbp),%rax
    2b82:	48 89 d6             	mov    %rdx,%rsi
    2b85:	48 89 c7             	mov    %rax,%rdi
    2b88:	e8 00 00 00 00       	call   2b8d <fcvt_fp64_to_int64+0x23>
/export/lustre-2/verify/work/hjm/RTPG/RTG/rpg_source/src/fplib/gs_fplib.cpp:1137
    2b8d:	c9                   	leave  
    2b8e:	c3                   	ret    

0000000000002b8f <fcvt_fp64_to_int32>:
fcvt_fp64_to_int32():
/export/lustre-2/verify/work/hjm/RTPG/RTG/rpg_source/src/fplib/gs_fplib.cpp:1140
    2b8f:	55                   	push   %rbp
    2b90:	48 89 e5             	mov    %rsp,%rbp
    2b93:	48 83 ec 10          	sub    $0x10,%rsp
    2b97:	48 89 7d f8          	mov    %rdi,-0x8(%rbp)
    2b9b:	48 89 75 f0          	mov    %rsi,-0x10(%rbp)
/export/lustre-2/verify/work/hjm/RTPG/RTG/rpg_source/src/fplib/gs_fplib.cpp:1141
    2b9f:	48 8b 55 f0          	mov    -0x10(%rbp),%rdx
    2ba3:	48 8b 45 f8          	mov    -0x8(%rbp),%rax
    2ba7:	48 89 d6             	mov    %rdx,%rsi
    2baa:	48 89 c7             	mov    %rax,%rdi
    2bad:	e8 00 00 00 00       	call   2bb2 <fcvt_fp64_to_int32+0x23>
/export/lustre-2/verify/work/hjm/RTPG/RTG/rpg_source/src/fplib/gs_fplib.cpp:1142
    2bb2:	c9                   	leave  
    2bb3:	c3                   	ret    

0000000000002bb4 <fcvt_fp32_to_int32>:
fcvt_fp32_to_int32():
/export/lustre-2/verify/work/hjm/RTPG/RTG/rpg_source/src/fplib/gs_fplib.cpp:1145
    2bb4:	55                   	push   %rbp
    2bb5:	48 89 e5             	mov    %rsp,%rbp
    2bb8:	48 83 ec 10          	sub    $0x10,%rsp
    2bbc:	89 7d fc             	mov    %edi,-0x4(%rbp)
    2bbf:	48 89 75 f0          	mov    %rsi,-0x10(%rbp)
/export/lustre-2/verify/work/hjm/RTPG/RTG/rpg_source/src/fplib/gs_fplib.cpp:1146
    2bc3:	48 8b 55 f0          	mov    -0x10(%rbp),%rdx
    2bc7:	8b 45 fc             	mov    -0x4(%rbp),%eax
    2bca:	48 89 d6             	mov    %rdx,%rsi
    2bcd:	89 c7                	mov    %eax,%edi
    2bcf:	e8 00 00 00 00       	call   2bd4 <fcvt_fp32_to_int32+0x20>
/export/lustre-2/verify/work/hjm/RTPG/RTG/rpg_source/src/fplib/gs_fplib.cpp:1147
    2bd4:	c9                   	leave  
    2bd5:	c3                   	ret    

0000000000002bd6 <fcvt_fp32_to_int64>:
fcvt_fp32_to_int64():
/export/lustre-2/verify/work/hjm/RTPG/RTG/rpg_source/src/fplib/gs_fplib.cpp:1150
    2bd6:	55                   	push   %rbp
    2bd7:	48 89 e5             	mov    %rsp,%rbp
    2bda:	48 83 ec 10          	sub    $0x10,%rsp
    2bde:	89 7d fc             	mov    %edi,-0x4(%rbp)
    2be1:	48 89 75 f0          	mov    %rsi,-0x10(%rbp)
/export/lustre-2/verify/work/hjm/RTPG/RTG/rpg_source/src/fplib/gs_fplib.cpp:1151
    2be5:	48 8b 55 f0          	mov    -0x10(%rbp),%rdx
    2be9:	8b 45 fc             	mov    -0x4(%rbp),%eax
    2bec:	48 89 d6             	mov    %rdx,%rsi
    2bef:	89 c7                	mov    %eax,%edi
    2bf1:	e8 00 00 00 00       	call   2bf6 <fcvt_fp32_to_int64+0x20>
/export/lustre-2/verify/work/hjm/RTPG/RTG/rpg_source/src/fplib/gs_fplib.cpp:1152
    2bf6:	c9                   	leave  
    2bf7:	c3                   	ret    

0000000000002bf8 <vfcvt_fp32_to_int64>:
vfcvt_fp32_to_int64():
/export/lustre-2/verify/work/hjm/RTPG/RTG/rpg_source/src/fplib/gs_fplib.cpp:1156
    2bf8:	55                   	push   %rbp
    2bf9:	48 89 e5             	mov    %rsp,%rbp
    2bfc:	48 83 ec 10          	sub    $0x10,%rsp
    2c00:	89 7d fc             	mov    %edi,-0x4(%rbp)
    2c03:	48 89 75 f0          	mov    %rsi,-0x10(%rbp)
    2c07:	89 d0                	mov    %edx,%eax
    2c09:	88 45 f8             	mov    %al,-0x8(%rbp)
/export/lustre-2/verify/work/hjm/RTPG/RTG/rpg_source/src/fplib/gs_fplib.cpp:1157
    2c0c:	0f b6 45 f8          	movzbl -0x8(%rbp),%eax
    2c10:	89 c7                	mov    %eax,%edi
    2c12:	e8 00 00 00 00       	call   2c17 <vfcvt_fp32_to_int64+0x1f>
/export/lustre-2/verify/work/hjm/RTPG/RTG/rpg_source/src/fplib/gs_fplib.cpp:1158
    2c17:	48 8b 55 f0          	mov    -0x10(%rbp),%rdx
    2c1b:	8b 45 fc             	mov    -0x4(%rbp),%eax
    2c1e:	48 89 d6             	mov    %rdx,%rsi
    2c21:	89 c7                	mov    %eax,%edi
    2c23:	e8 00 00 00 00       	call   2c28 <vfcvt_fp32_to_int64+0x30>
/export/lustre-2/verify/work/hjm/RTPG/RTG/rpg_source/src/fplib/gs_fplib.cpp:1159
    2c28:	c9                   	leave  
    2c29:	c3                   	ret    

0000000000002c2a <vfcvt_int64_to_fp64>:
vfcvt_int64_to_fp64():
/export/lustre-2/verify/work/hjm/RTPG/RTG/rpg_source/src/fplib/gs_fplib.cpp:1161
    2c2a:	55                   	push   %rbp
    2c2b:	48 89 e5             	mov    %rsp,%rbp
    2c2e:	48 83 ec 20          	sub    $0x20,%rsp
    2c32:	48 89 7d f8          	mov    %rdi,-0x8(%rbp)
    2c36:	48 89 75 f0          	mov    %rsi,-0x10(%rbp)
    2c3a:	89 d0                	mov    %edx,%eax
    2c3c:	88 45 ec             	mov    %al,-0x14(%rbp)
/export/lustre-2/verify/work/hjm/RTPG/RTG/rpg_source/src/fplib/gs_fplib.cpp:1162
    2c3f:	0f b6 45 ec          	movzbl -0x14(%rbp),%eax
    2c43:	89 c7                	mov    %eax,%edi
    2c45:	e8 00 00 00 00       	call   2c4a <vfcvt_int64_to_fp64+0x20>
/export/lustre-2/verify/work/hjm/RTPG/RTG/rpg_source/src/fplib/gs_fplib.cpp:1163
    2c4a:	48 8b 55 f0          	mov    -0x10(%rbp),%rdx
    2c4e:	48 8b 45 f8          	mov    -0x8(%rbp),%rax
    2c52:	48 89 d6             	mov    %rdx,%rsi
    2c55:	48 89 c7             	mov    %rax,%rdi
    2c58:	e8 00 00 00 00       	call   2c5d <vfcvt_int64_to_fp64+0x33>
/export/lustre-2/verify/work/hjm/RTPG/RTG/rpg_source/src/fplib/gs_fplib.cpp:1164
    2c5d:	c9                   	leave  
    2c5e:	c3                   	ret    

0000000000002c5f <vfcvt_int32_to_fp32>:
vfcvt_int32_to_fp32():
/export/lustre-2/verify/work/hjm/RTPG/RTG/rpg_source/src/fplib/gs_fplib.cpp:1166
    2c5f:	55                   	push   %rbp
    2c60:	48 89 e5             	mov    %rsp,%rbp
    2c63:	48 83 ec 10          	sub    $0x10,%rsp
    2c67:	89 7d fc             	mov    %edi,-0x4(%rbp)
    2c6a:	48 89 75 f0          	mov    %rsi,-0x10(%rbp)
    2c6e:	89 d0                	mov    %edx,%eax
    2c70:	88 45 f8             	mov    %al,-0x8(%rbp)
/export/lustre-2/verify/work/hjm/RTPG/RTG/rpg_source/src/fplib/gs_fplib.cpp:1167
    2c73:	0f b6 45 f8          	movzbl -0x8(%rbp),%eax
    2c77:	89 c7                	mov    %eax,%edi
    2c79:	e8 00 00 00 00       	call   2c7e <vfcvt_int32_to_fp32+0x1f>
/export/lustre-2/verify/work/hjm/RTPG/RTG/rpg_source/src/fplib/gs_fplib.cpp:1168
    2c7e:	48 8b 55 f0          	mov    -0x10(%rbp),%rdx
    2c82:	8b 45 fc             	mov    -0x4(%rbp),%eax
    2c85:	48 89 d6             	mov    %rdx,%rsi
    2c88:	89 c7                	mov    %eax,%edi
    2c8a:	e8 00 00 00 00       	call   2c8f <vfcvt_int32_to_fp32+0x30>
/export/lustre-2/verify/work/hjm/RTPG/RTG/rpg_source/src/fplib/gs_fplib.cpp:1169
    2c8f:	c9                   	leave  
    2c90:	c3                   	ret    

0000000000002c91 <vfcvt_uint32_to_fp32>:
vfcvt_uint32_to_fp32():
/export/lustre-2/verify/work/hjm/RTPG/RTG/rpg_source/src/fplib/gs_fplib.cpp:1171
    2c91:	55                   	push   %rbp
    2c92:	48 89 e5             	mov    %rsp,%rbp
    2c95:	48 83 ec 10          	sub    $0x10,%rsp
    2c99:	89 7d fc             	mov    %edi,-0x4(%rbp)
    2c9c:	48 89 75 f0          	mov    %rsi,-0x10(%rbp)
    2ca0:	89 d0                	mov    %edx,%eax
    2ca2:	88 45 f8             	mov    %al,-0x8(%rbp)
/export/lustre-2/verify/work/hjm/RTPG/RTG/rpg_source/src/fplib/gs_fplib.cpp:1172
    2ca5:	0f b6 45 f8          	movzbl -0x8(%rbp),%eax
    2ca9:	89 c7                	mov    %eax,%edi
    2cab:	e8 00 00 00 00       	call   2cb0 <vfcvt_uint32_to_fp32+0x1f>
/export/lustre-2/verify/work/hjm/RTPG/RTG/rpg_source/src/fplib/gs_fplib.cpp:1173
    2cb0:	48 8b 55 f0          	mov    -0x10(%rbp),%rdx
    2cb4:	8b 45 fc             	mov    -0x4(%rbp),%eax
    2cb7:	48 89 d6             	mov    %rdx,%rsi
    2cba:	89 c7                	mov    %eax,%edi
    2cbc:	e8 00 00 00 00       	call   2cc1 <vfcvt_uint32_to_fp32+0x30>
/export/lustre-2/verify/work/hjm/RTPG/RTG/rpg_source/src/fplib/gs_fplib.cpp:1174
    2cc1:	c9                   	leave  
    2cc2:	c3                   	ret    

0000000000002cc3 <vfcvt_uint64_to_fp64>:
vfcvt_uint64_to_fp64():
/export/lustre-2/verify/work/hjm/RTPG/RTG/rpg_source/src/fplib/gs_fplib.cpp:1176
    2cc3:	55                   	push   %rbp
    2cc4:	48 89 e5             	mov    %rsp,%rbp
    2cc7:	48 83 ec 20          	sub    $0x20,%rsp
    2ccb:	48 89 7d f8          	mov    %rdi,-0x8(%rbp)
    2ccf:	48 89 75 f0          	mov    %rsi,-0x10(%rbp)
    2cd3:	89 d0                	mov    %edx,%eax
    2cd5:	88 45 ec             	mov    %al,-0x14(%rbp)
/export/lustre-2/verify/work/hjm/RTPG/RTG/rpg_source/src/fplib/gs_fplib.cpp:1177
    2cd8:	0f b6 45 ec          	movzbl -0x14(%rbp),%eax
    2cdc:	89 c7                	mov    %eax,%edi
    2cde:	e8 00 00 00 00       	call   2ce3 <vfcvt_uint64_to_fp64+0x20>
/export/lustre-2/verify/work/hjm/RTPG/RTG/rpg_source/src/fplib/gs_fplib.cpp:1178
    2ce3:	48 8b 55 f0          	mov    -0x10(%rbp),%rdx
    2ce7:	48 8b 45 f8          	mov    -0x8(%rbp),%rax
    2ceb:	48 89 d6             	mov    %rdx,%rsi
    2cee:	48 89 c7             	mov    %rax,%rdi
    2cf1:	e8 00 00 00 00       	call   2cf6 <vfcvt_uint64_to_fp64+0x33>
